
Projeto2-Otimizacao-Energetica.elf:     file format elf32-littlearm

Sections:
Idx Name          Size      VMA       LMA       File off  Algn
  0 .text         00002dd4  00400000  00400000  00010000  2**2
                  CONTENTS, ALLOC, LOAD, READONLY, CODE
  1 .relocate     00000844  20400000  00402dd4  00020000  2**3
                  CONTENTS, ALLOC, LOAD, DATA
  2 .bss          000000d8  20400844  00403618  00020844  2**2
                  ALLOC
  3 .stack        00002004  2040091c  004036f0  00020844  2**0
                  ALLOC
  4 .heap         00000200  20402920  004056f4  00020844  2**0
                  ALLOC
  5 .ARM.attributes 0000002e  00000000  00000000  00020844  2**0
                  CONTENTS, READONLY
  6 .comment      00000059  00000000  00000000  00020872  2**0
                  CONTENTS, READONLY
  7 .debug_info   0000ac1e  00000000  00000000  000208cb  2**0
                  CONTENTS, READONLY, DEBUGGING
  8 .debug_abbrev 000017c5  00000000  00000000  0002b4e9  2**0
                  CONTENTS, READONLY, DEBUGGING
  9 .debug_loc    00007404  00000000  00000000  0002ccae  2**0
                  CONTENTS, READONLY, DEBUGGING
 10 .debug_aranges 00000c30  00000000  00000000  000340b2  2**0
                  CONTENTS, READONLY, DEBUGGING
 11 .debug_ranges 00000b40  00000000  00000000  00034ce2  2**0
                  CONTENTS, READONLY, DEBUGGING
 12 .debug_macro  0001e170  00000000  00000000  00035822  2**0
                  CONTENTS, READONLY, DEBUGGING
 13 .debug_line   0000ad58  00000000  00000000  00053992  2**0
                  CONTENTS, READONLY, DEBUGGING
 14 .debug_str    0008a57c  00000000  00000000  0005e6ea  2**0
                  CONTENTS, READONLY, DEBUGGING
 15 .debug_frame  00003bd0  00000000  00000000  000e8c68  2**2
                  CONTENTS, READONLY, DEBUGGING

Disassembly of section .text:

00400000 <_sfixed>:
  400000:	20402920 	.word	0x20402920
  400004:	00401271 	.word	0x00401271
  400008:	00401321 	.word	0x00401321
  40000c:	00401321 	.word	0x00401321
  400010:	00401321 	.word	0x00401321
  400014:	00401321 	.word	0x00401321
  400018:	00401321 	.word	0x00401321
	...
  40002c:	00401321 	.word	0x00401321
  400030:	00401321 	.word	0x00401321
  400034:	00000000 	.word	0x00000000
  400038:	00401321 	.word	0x00401321
  40003c:	00401321 	.word	0x00401321
  400040:	00401321 	.word	0x00401321
  400044:	00401321 	.word	0x00401321
  400048:	00401afd 	.word	0x00401afd
  40004c:	00401321 	.word	0x00401321
  400050:	00401321 	.word	0x00401321
  400054:	00401321 	.word	0x00401321
  400058:	00401321 	.word	0x00401321
  40005c:	00401321 	.word	0x00401321
  400060:	00401321 	.word	0x00401321
  400064:	00000000 	.word	0x00000000
  400068:	004008d9 	.word	0x004008d9
  40006c:	004008f1 	.word	0x004008f1
  400070:	00400909 	.word	0x00400909
  400074:	00401321 	.word	0x00401321
  400078:	00401321 	.word	0x00401321
  40007c:	00401321 	.word	0x00401321
  400080:	00400921 	.word	0x00400921
  400084:	00400939 	.word	0x00400939
  400088:	00401321 	.word	0x00401321
  40008c:	00401321 	.word	0x00401321
  400090:	00401321 	.word	0x00401321
  400094:	00401321 	.word	0x00401321
  400098:	00401321 	.word	0x00401321
  40009c:	00401321 	.word	0x00401321
  4000a0:	00401ac5 	.word	0x00401ac5
  4000a4:	00401321 	.word	0x00401321
  4000a8:	00401321 	.word	0x00401321
  4000ac:	00401321 	.word	0x00401321
  4000b0:	00401321 	.word	0x00401321
  4000b4:	00401321 	.word	0x00401321
  4000b8:	00401321 	.word	0x00401321
  4000bc:	00401321 	.word	0x00401321
  4000c0:	00401321 	.word	0x00401321
  4000c4:	00401321 	.word	0x00401321
  4000c8:	00401321 	.word	0x00401321
  4000cc:	00401321 	.word	0x00401321
  4000d0:	00000000 	.word	0x00000000
  4000d4:	00401321 	.word	0x00401321
  4000d8:	00000000 	.word	0x00000000
  4000dc:	00401321 	.word	0x00401321
  4000e0:	00401321 	.word	0x00401321
  4000e4:	00401321 	.word	0x00401321
  4000e8:	00401321 	.word	0x00401321
  4000ec:	00401321 	.word	0x00401321
  4000f0:	00401321 	.word	0x00401321
  4000f4:	00401321 	.word	0x00401321
  4000f8:	00401321 	.word	0x00401321
  4000fc:	00401321 	.word	0x00401321
  400100:	00401321 	.word	0x00401321
  400104:	00401321 	.word	0x00401321
  400108:	00401321 	.word	0x00401321
  40010c:	00401321 	.word	0x00401321
  400110:	00401321 	.word	0x00401321
	...
  400120:	00401321 	.word	0x00401321
  400124:	00401321 	.word	0x00401321
  400128:	00401321 	.word	0x00401321
  40012c:	00401321 	.word	0x00401321
  400130:	00401321 	.word	0x00401321
  400134:	00000000 	.word	0x00000000
  400138:	00401321 	.word	0x00401321
  40013c:	00401321 	.word	0x00401321

00400140 <__do_global_dtors_aux>:
  400140:	b510      	push	{r4, lr}
  400142:	4c05      	ldr	r4, [pc, #20]	; (400158 <__do_global_dtors_aux+0x18>)
  400144:	7823      	ldrb	r3, [r4, #0]
  400146:	b933      	cbnz	r3, 400156 <__do_global_dtors_aux+0x16>
  400148:	4b04      	ldr	r3, [pc, #16]	; (40015c <__do_global_dtors_aux+0x1c>)
  40014a:	b113      	cbz	r3, 400152 <__do_global_dtors_aux+0x12>
  40014c:	4804      	ldr	r0, [pc, #16]	; (400160 <__do_global_dtors_aux+0x20>)
  40014e:	f3af 8000 	nop.w
  400152:	2301      	movs	r3, #1
  400154:	7023      	strb	r3, [r4, #0]
  400156:	bd10      	pop	{r4, pc}
  400158:	20400844 	.word	0x20400844
  40015c:	00000000 	.word	0x00000000
  400160:	00402dd4 	.word	0x00402dd4

00400164 <frame_dummy>:
  400164:	4b08      	ldr	r3, [pc, #32]	; (400188 <frame_dummy+0x24>)
  400166:	b510      	push	{r4, lr}
  400168:	b11b      	cbz	r3, 400172 <frame_dummy+0xe>
  40016a:	4908      	ldr	r1, [pc, #32]	; (40018c <frame_dummy+0x28>)
  40016c:	4808      	ldr	r0, [pc, #32]	; (400190 <frame_dummy+0x2c>)
  40016e:	f3af 8000 	nop.w
  400172:	4808      	ldr	r0, [pc, #32]	; (400194 <frame_dummy+0x30>)
  400174:	6803      	ldr	r3, [r0, #0]
  400176:	b903      	cbnz	r3, 40017a <frame_dummy+0x16>
  400178:	bd10      	pop	{r4, pc}
  40017a:	4b07      	ldr	r3, [pc, #28]	; (400198 <frame_dummy+0x34>)
  40017c:	2b00      	cmp	r3, #0
  40017e:	d0fb      	beq.n	400178 <frame_dummy+0x14>
  400180:	e8bd 4010 	ldmia.w	sp!, {r4, lr}
  400184:	4718      	bx	r3
  400186:	bf00      	nop
  400188:	00000000 	.word	0x00000000
  40018c:	20400848 	.word	0x20400848
  400190:	00402dd4 	.word	0x00402dd4
  400194:	00402dd4 	.word	0x00402dd4
  400198:	00000000 	.word	0x00000000

0040019c <osc_enable>:
#define OSC_MAINCK_XTAL_HZ      BOARD_FREQ_MAINCK_XTAL    //!< External crystal oscillator.
#define OSC_MAINCK_BYPASS_HZ    BOARD_FREQ_MAINCK_BYPASS  //!< External bypass oscillator.
//@}

static inline void osc_enable(uint32_t ul_id)
{
  40019c:	b580      	push	{r7, lr}
  40019e:	b082      	sub	sp, #8
  4001a0:	af00      	add	r7, sp, #0
  4001a2:	6078      	str	r0, [r7, #4]
	switch (ul_id) {
  4001a4:	687b      	ldr	r3, [r7, #4]
  4001a6:	2b07      	cmp	r3, #7
  4001a8:	d831      	bhi.n	40020e <osc_enable+0x72>
  4001aa:	a201      	add	r2, pc, #4	; (adr r2, 4001b0 <osc_enable+0x14>)
  4001ac:	f852 f023 	ldr.w	pc, [r2, r3, lsl #2]
  4001b0:	0040020d 	.word	0x0040020d
  4001b4:	004001d1 	.word	0x004001d1
  4001b8:	004001d9 	.word	0x004001d9
  4001bc:	004001e1 	.word	0x004001e1
  4001c0:	004001e9 	.word	0x004001e9
  4001c4:	004001f1 	.word	0x004001f1
  4001c8:	004001f9 	.word	0x004001f9
  4001cc:	00400203 	.word	0x00400203
	case OSC_SLCK_32K_RC:
		break;

	case OSC_SLCK_32K_XTAL:
		pmc_switch_sclk_to_32kxtal(PMC_OSC_XTAL);
  4001d0:	2000      	movs	r0, #0
  4001d2:	4b11      	ldr	r3, [pc, #68]	; (400218 <osc_enable+0x7c>)
  4001d4:	4798      	blx	r3
		break;
  4001d6:	e01a      	b.n	40020e <osc_enable+0x72>

	case OSC_SLCK_32K_BYPASS:
		pmc_switch_sclk_to_32kxtal(PMC_OSC_BYPASS);
  4001d8:	2001      	movs	r0, #1
  4001da:	4b0f      	ldr	r3, [pc, #60]	; (400218 <osc_enable+0x7c>)
  4001dc:	4798      	blx	r3
		break;
  4001de:	e016      	b.n	40020e <osc_enable+0x72>


	case OSC_MAINCK_4M_RC:
		pmc_switch_mainck_to_fastrc(CKGR_MOR_MOSCRCF_4_MHz);
  4001e0:	2000      	movs	r0, #0
  4001e2:	4b0e      	ldr	r3, [pc, #56]	; (40021c <osc_enable+0x80>)
  4001e4:	4798      	blx	r3
		break;
  4001e6:	e012      	b.n	40020e <osc_enable+0x72>

	case OSC_MAINCK_8M_RC:
		pmc_switch_mainck_to_fastrc(CKGR_MOR_MOSCRCF_8_MHz);
  4001e8:	2010      	movs	r0, #16
  4001ea:	4b0c      	ldr	r3, [pc, #48]	; (40021c <osc_enable+0x80>)
  4001ec:	4798      	blx	r3
		break;
  4001ee:	e00e      	b.n	40020e <osc_enable+0x72>

	case OSC_MAINCK_12M_RC:
		pmc_switch_mainck_to_fastrc(CKGR_MOR_MOSCRCF_12_MHz);
  4001f0:	2020      	movs	r0, #32
  4001f2:	4b0a      	ldr	r3, [pc, #40]	; (40021c <osc_enable+0x80>)
  4001f4:	4798      	blx	r3
		break;
  4001f6:	e00a      	b.n	40020e <osc_enable+0x72>


	case OSC_MAINCK_XTAL:
		pmc_switch_mainck_to_xtal(PMC_OSC_XTAL,
  4001f8:	213e      	movs	r1, #62	; 0x3e
  4001fa:	2000      	movs	r0, #0
  4001fc:	4b08      	ldr	r3, [pc, #32]	; (400220 <osc_enable+0x84>)
  4001fe:	4798      	blx	r3
			pmc_us_to_moscxtst(BOARD_OSC_STARTUP_US,
				OSC_SLCK_32K_RC_HZ));
		break;
  400200:	e005      	b.n	40020e <osc_enable+0x72>

	case OSC_MAINCK_BYPASS:
		pmc_switch_mainck_to_xtal(PMC_OSC_BYPASS,
  400202:	213e      	movs	r1, #62	; 0x3e
  400204:	2001      	movs	r0, #1
  400206:	4b06      	ldr	r3, [pc, #24]	; (400220 <osc_enable+0x84>)
  400208:	4798      	blx	r3
			pmc_us_to_moscxtst(BOARD_OSC_STARTUP_US,
				OSC_SLCK_32K_RC_HZ));
		break;
  40020a:	e000      	b.n	40020e <osc_enable+0x72>

static inline void osc_enable(uint32_t ul_id)
{
	switch (ul_id) {
	case OSC_SLCK_32K_RC:
		break;
  40020c:	bf00      	nop
		pmc_switch_mainck_to_xtal(PMC_OSC_BYPASS,
			pmc_us_to_moscxtst(BOARD_OSC_STARTUP_US,
				OSC_SLCK_32K_RC_HZ));
		break;
	}
}
  40020e:	bf00      	nop
  400210:	3708      	adds	r7, #8
  400212:	46bd      	mov	sp, r7
  400214:	bd80      	pop	{r7, pc}
  400216:	bf00      	nop
  400218:	00400a51 	.word	0x00400a51
  40021c:	00400abd 	.word	0x00400abd
  400220:	00400b2d 	.word	0x00400b2d

00400224 <osc_is_ready>:
		break;
	}
}

static inline bool osc_is_ready(uint32_t ul_id)
{
  400224:	b580      	push	{r7, lr}
  400226:	b082      	sub	sp, #8
  400228:	af00      	add	r7, sp, #0
  40022a:	6078      	str	r0, [r7, #4]
	switch (ul_id) {
  40022c:	687b      	ldr	r3, [r7, #4]
  40022e:	2b07      	cmp	r3, #7
  400230:	d826      	bhi.n	400280 <osc_is_ready+0x5c>
  400232:	a201      	add	r2, pc, #4	; (adr r2, 400238 <osc_is_ready+0x14>)
  400234:	f852 f023 	ldr.w	pc, [r2, r3, lsl #2]
  400238:	00400259 	.word	0x00400259
  40023c:	0040025d 	.word	0x0040025d
  400240:	0040025d 	.word	0x0040025d
  400244:	0040026f 	.word	0x0040026f
  400248:	0040026f 	.word	0x0040026f
  40024c:	0040026f 	.word	0x0040026f
  400250:	0040026f 	.word	0x0040026f
  400254:	0040026f 	.word	0x0040026f
	case OSC_SLCK_32K_RC:
		return 1;
  400258:	2301      	movs	r3, #1
  40025a:	e012      	b.n	400282 <osc_is_ready+0x5e>

	case OSC_SLCK_32K_XTAL:
	case OSC_SLCK_32K_BYPASS:
		return pmc_osc_is_ready_32kxtal();
  40025c:	4b0b      	ldr	r3, [pc, #44]	; (40028c <osc_is_ready+0x68>)
  40025e:	4798      	blx	r3
  400260:	4603      	mov	r3, r0
  400262:	2b00      	cmp	r3, #0
  400264:	bf14      	ite	ne
  400266:	2301      	movne	r3, #1
  400268:	2300      	moveq	r3, #0
  40026a:	b2db      	uxtb	r3, r3
  40026c:	e009      	b.n	400282 <osc_is_ready+0x5e>
	case OSC_MAINCK_4M_RC:
	case OSC_MAINCK_8M_RC:
	case OSC_MAINCK_12M_RC:
	case OSC_MAINCK_XTAL:
	case OSC_MAINCK_BYPASS:
		return pmc_osc_is_ready_mainck();
  40026e:	4b08      	ldr	r3, [pc, #32]	; (400290 <osc_is_ready+0x6c>)
  400270:	4798      	blx	r3
  400272:	4603      	mov	r3, r0
  400274:	2b00      	cmp	r3, #0
  400276:	bf14      	ite	ne
  400278:	2301      	movne	r3, #1
  40027a:	2300      	moveq	r3, #0
  40027c:	b2db      	uxtb	r3, r3
  40027e:	e000      	b.n	400282 <osc_is_ready+0x5e>
	}

	return 0;
  400280:	2300      	movs	r3, #0
}
  400282:	4618      	mov	r0, r3
  400284:	3708      	adds	r7, #8
  400286:	46bd      	mov	sp, r7
  400288:	bd80      	pop	{r7, pc}
  40028a:	bf00      	nop
  40028c:	00400a89 	.word	0x00400a89
  400290:	00400ba5 	.word	0x00400ba5

00400294 <osc_get_rate>:

static inline uint32_t osc_get_rate(uint32_t ul_id)
{
  400294:	b480      	push	{r7}
  400296:	b083      	sub	sp, #12
  400298:	af00      	add	r7, sp, #0
  40029a:	6078      	str	r0, [r7, #4]
	switch (ul_id) {
  40029c:	687b      	ldr	r3, [r7, #4]
  40029e:	2b07      	cmp	r3, #7
  4002a0:	d825      	bhi.n	4002ee <osc_get_rate+0x5a>
  4002a2:	a201      	add	r2, pc, #4	; (adr r2, 4002a8 <osc_get_rate+0x14>)
  4002a4:	f852 f023 	ldr.w	pc, [r2, r3, lsl #2]
  4002a8:	004002c9 	.word	0x004002c9
  4002ac:	004002cf 	.word	0x004002cf
  4002b0:	004002d5 	.word	0x004002d5
  4002b4:	004002db 	.word	0x004002db
  4002b8:	004002df 	.word	0x004002df
  4002bc:	004002e3 	.word	0x004002e3
  4002c0:	004002e7 	.word	0x004002e7
  4002c4:	004002eb 	.word	0x004002eb
	case OSC_SLCK_32K_RC:
		return OSC_SLCK_32K_RC_HZ;
  4002c8:	f44f 43fa 	mov.w	r3, #32000	; 0x7d00
  4002cc:	e010      	b.n	4002f0 <osc_get_rate+0x5c>

	case OSC_SLCK_32K_XTAL:
		return BOARD_FREQ_SLCK_XTAL;
  4002ce:	f44f 4300 	mov.w	r3, #32768	; 0x8000
  4002d2:	e00d      	b.n	4002f0 <osc_get_rate+0x5c>

	case OSC_SLCK_32K_BYPASS:
		return BOARD_FREQ_SLCK_BYPASS;
  4002d4:	f44f 4300 	mov.w	r3, #32768	; 0x8000
  4002d8:	e00a      	b.n	4002f0 <osc_get_rate+0x5c>

	case OSC_MAINCK_4M_RC:
		return OSC_MAINCK_4M_RC_HZ;
  4002da:	4b08      	ldr	r3, [pc, #32]	; (4002fc <osc_get_rate+0x68>)
  4002dc:	e008      	b.n	4002f0 <osc_get_rate+0x5c>

	case OSC_MAINCK_8M_RC:
		return OSC_MAINCK_8M_RC_HZ;
  4002de:	4b08      	ldr	r3, [pc, #32]	; (400300 <osc_get_rate+0x6c>)
  4002e0:	e006      	b.n	4002f0 <osc_get_rate+0x5c>

	case OSC_MAINCK_12M_RC:
		return OSC_MAINCK_12M_RC_HZ;
  4002e2:	4b08      	ldr	r3, [pc, #32]	; (400304 <osc_get_rate+0x70>)
  4002e4:	e004      	b.n	4002f0 <osc_get_rate+0x5c>

	case OSC_MAINCK_XTAL:
		return BOARD_FREQ_MAINCK_XTAL;
  4002e6:	4b07      	ldr	r3, [pc, #28]	; (400304 <osc_get_rate+0x70>)
  4002e8:	e002      	b.n	4002f0 <osc_get_rate+0x5c>

	case OSC_MAINCK_BYPASS:
		return BOARD_FREQ_MAINCK_BYPASS;
  4002ea:	4b06      	ldr	r3, [pc, #24]	; (400304 <osc_get_rate+0x70>)
  4002ec:	e000      	b.n	4002f0 <osc_get_rate+0x5c>
	}

	return 0;
  4002ee:	2300      	movs	r3, #0
}
  4002f0:	4618      	mov	r0, r3
  4002f2:	370c      	adds	r7, #12
  4002f4:	46bd      	mov	sp, r7
  4002f6:	f85d 7b04 	ldr.w	r7, [sp], #4
  4002fa:	4770      	bx	lr
  4002fc:	003d0900 	.word	0x003d0900
  400300:	007a1200 	.word	0x007a1200
  400304:	00b71b00 	.word	0x00b71b00

00400308 <osc_wait_ready>:
 * to become stable and ready to use as a clock source.
 *
 * \param id A number identifying the oscillator to wait for.
 */
static inline void osc_wait_ready(uint8_t id)
{
  400308:	b580      	push	{r7, lr}
  40030a:	b082      	sub	sp, #8
  40030c:	af00      	add	r7, sp, #0
  40030e:	4603      	mov	r3, r0
  400310:	71fb      	strb	r3, [r7, #7]
	while (!osc_is_ready(id)) {
  400312:	bf00      	nop
  400314:	79fb      	ldrb	r3, [r7, #7]
  400316:	4618      	mov	r0, r3
  400318:	4b05      	ldr	r3, [pc, #20]	; (400330 <osc_wait_ready+0x28>)
  40031a:	4798      	blx	r3
  40031c:	4603      	mov	r3, r0
  40031e:	f083 0301 	eor.w	r3, r3, #1
  400322:	b2db      	uxtb	r3, r3
  400324:	2b00      	cmp	r3, #0
  400326:	d1f5      	bne.n	400314 <osc_wait_ready+0xc>
		/* Do nothing */
	}
}
  400328:	bf00      	nop
  40032a:	3708      	adds	r7, #8
  40032c:	46bd      	mov	sp, r7
  40032e:	bd80      	pop	{r7, pc}
  400330:	00400225 	.word	0x00400225

00400334 <pll_config_init>:
 * hardware mul+1 is hidden in this implementation. Use mul as mul effective
 * value.
 */
static inline void pll_config_init(struct pll_config *p_cfg,
		enum pll_source e_src, uint32_t ul_div, uint32_t ul_mul)
{
  400334:	b580      	push	{r7, lr}
  400336:	b086      	sub	sp, #24
  400338:	af00      	add	r7, sp, #0
  40033a:	60f8      	str	r0, [r7, #12]
  40033c:	607a      	str	r2, [r7, #4]
  40033e:	603b      	str	r3, [r7, #0]
  400340:	460b      	mov	r3, r1
  400342:	72fb      	strb	r3, [r7, #11]
	uint32_t vco_hz;

	Assert(e_src < PLL_NR_SOURCES);

	if (ul_div == 0 && ul_mul == 0) { /* Must only be true for UTMI PLL */
  400344:	687b      	ldr	r3, [r7, #4]
  400346:	2b00      	cmp	r3, #0
  400348:	d107      	bne.n	40035a <pll_config_init+0x26>
  40034a:	683b      	ldr	r3, [r7, #0]
  40034c:	2b00      	cmp	r3, #0
  40034e:	d104      	bne.n	40035a <pll_config_init+0x26>
		p_cfg->ctrl = CKGR_UCKR_UPLLCOUNT(PLL_COUNT);
  400350:	68fb      	ldr	r3, [r7, #12]
  400352:	f44f 0270 	mov.w	r2, #15728640	; 0xf00000
  400356:	601a      	str	r2, [r3, #0]
  400358:	e019      	b.n	40038e <pll_config_init+0x5a>
	} else { /* PLLA */
	/* Calculate internal VCO frequency */
	vco_hz = osc_get_rate(e_src) / ul_div;
  40035a:	7afb      	ldrb	r3, [r7, #11]
  40035c:	4618      	mov	r0, r3
  40035e:	4b0e      	ldr	r3, [pc, #56]	; (400398 <pll_config_init+0x64>)
  400360:	4798      	blx	r3
  400362:	4602      	mov	r2, r0
  400364:	687b      	ldr	r3, [r7, #4]
  400366:	fbb2 f3f3 	udiv	r3, r2, r3
  40036a:	617b      	str	r3, [r7, #20]
	Assert(vco_hz >= PLL_INPUT_MIN_HZ);
	Assert(vco_hz <= PLL_INPUT_MAX_HZ);

	vco_hz *= ul_mul;
  40036c:	697b      	ldr	r3, [r7, #20]
  40036e:	683a      	ldr	r2, [r7, #0]
  400370:	fb02 f303 	mul.w	r3, r2, r3
  400374:	617b      	str	r3, [r7, #20]
	Assert(vco_hz >= PLL_OUTPUT_MIN_HZ);
	Assert(vco_hz <= PLL_OUTPUT_MAX_HZ);

	/* PMC hardware will automatically make it mul+1 */
		p_cfg->ctrl = CKGR_PLLAR_MULA(ul_mul - 1) | CKGR_PLLAR_DIVA(ul_div)  \
  400376:	683b      	ldr	r3, [r7, #0]
  400378:	3b01      	subs	r3, #1
  40037a:	041a      	lsls	r2, r3, #16
  40037c:	4b07      	ldr	r3, [pc, #28]	; (40039c <pll_config_init+0x68>)
  40037e:	4013      	ands	r3, r2
  400380:	687a      	ldr	r2, [r7, #4]
  400382:	b2d2      	uxtb	r2, r2
  400384:	4313      	orrs	r3, r2
		| CKGR_PLLAR_PLLACOUNT(PLL_COUNT);
  400386:	f443 527c 	orr.w	r2, r3, #16128	; 0x3f00
	vco_hz *= ul_mul;
	Assert(vco_hz >= PLL_OUTPUT_MIN_HZ);
	Assert(vco_hz <= PLL_OUTPUT_MAX_HZ);

	/* PMC hardware will automatically make it mul+1 */
		p_cfg->ctrl = CKGR_PLLAR_MULA(ul_mul - 1) | CKGR_PLLAR_DIVA(ul_div)  \
  40038a:	68fb      	ldr	r3, [r7, #12]
  40038c:	601a      	str	r2, [r3, #0]
		| CKGR_PLLAR_PLLACOUNT(PLL_COUNT);
	}
}
  40038e:	bf00      	nop
  400390:	3718      	adds	r7, #24
  400392:	46bd      	mov	sp, r7
  400394:	bd80      	pop	{r7, pc}
  400396:	bf00      	nop
  400398:	00400295 	.word	0x00400295
  40039c:	07ff0000 	.word	0x07ff0000

004003a0 <pll_enable>:
		PMC->CKGR_UCKR = p_cfg->ctrl;
	}
}

static inline void pll_enable(const struct pll_config *p_cfg, uint32_t ul_pll_id)
{
  4003a0:	b580      	push	{r7, lr}
  4003a2:	b082      	sub	sp, #8
  4003a4:	af00      	add	r7, sp, #0
  4003a6:	6078      	str	r0, [r7, #4]
  4003a8:	6039      	str	r1, [r7, #0]
	Assert(ul_pll_id < NR_PLLS);

	if (ul_pll_id == PLLA_ID) {
  4003aa:	683b      	ldr	r3, [r7, #0]
  4003ac:	2b00      	cmp	r3, #0
  4003ae:	d108      	bne.n	4003c2 <pll_enable+0x22>
		pmc_disable_pllack(); // Always stop PLL first!
  4003b0:	4b09      	ldr	r3, [pc, #36]	; (4003d8 <pll_enable+0x38>)
  4003b2:	4798      	blx	r3
		PMC->CKGR_PLLAR = CKGR_PLLAR_ONE | p_cfg->ctrl;
  4003b4:	4a09      	ldr	r2, [pc, #36]	; (4003dc <pll_enable+0x3c>)
  4003b6:	687b      	ldr	r3, [r7, #4]
  4003b8:	681b      	ldr	r3, [r3, #0]
  4003ba:	f043 5300 	orr.w	r3, r3, #536870912	; 0x20000000
  4003be:	6293      	str	r3, [r2, #40]	; 0x28
	} else {
		PMC->CKGR_UCKR = p_cfg->ctrl | CKGR_UCKR_UPLLEN;
	}
}
  4003c0:	e005      	b.n	4003ce <pll_enable+0x2e>

	if (ul_pll_id == PLLA_ID) {
		pmc_disable_pllack(); // Always stop PLL first!
		PMC->CKGR_PLLAR = CKGR_PLLAR_ONE | p_cfg->ctrl;
	} else {
		PMC->CKGR_UCKR = p_cfg->ctrl | CKGR_UCKR_UPLLEN;
  4003c2:	4a06      	ldr	r2, [pc, #24]	; (4003dc <pll_enable+0x3c>)
  4003c4:	687b      	ldr	r3, [r7, #4]
  4003c6:	681b      	ldr	r3, [r3, #0]
  4003c8:	f443 3380 	orr.w	r3, r3, #65536	; 0x10000
  4003cc:	61d3      	str	r3, [r2, #28]
	}
}
  4003ce:	bf00      	nop
  4003d0:	3708      	adds	r7, #8
  4003d2:	46bd      	mov	sp, r7
  4003d4:	bd80      	pop	{r7, pc}
  4003d6:	bf00      	nop
  4003d8:	00400bc1 	.word	0x00400bc1
  4003dc:	400e0600 	.word	0x400e0600

004003e0 <pll_is_locked>:
		PMC->CKGR_UCKR &= ~CKGR_UCKR_UPLLEN;
	}
}

static inline uint32_t pll_is_locked(uint32_t ul_pll_id)
{
  4003e0:	b580      	push	{r7, lr}
  4003e2:	b082      	sub	sp, #8
  4003e4:	af00      	add	r7, sp, #0
  4003e6:	6078      	str	r0, [r7, #4]
	Assert(ul_pll_id < NR_PLLS);

	if (ul_pll_id == PLLA_ID) {
  4003e8:	687b      	ldr	r3, [r7, #4]
  4003ea:	2b00      	cmp	r3, #0
  4003ec:	d103      	bne.n	4003f6 <pll_is_locked+0x16>
	return pmc_is_locked_pllack();
  4003ee:	4b05      	ldr	r3, [pc, #20]	; (400404 <pll_is_locked+0x24>)
  4003f0:	4798      	blx	r3
  4003f2:	4603      	mov	r3, r0
  4003f4:	e002      	b.n	4003fc <pll_is_locked+0x1c>
	} else {
		return pmc_is_locked_upll();
  4003f6:	4b04      	ldr	r3, [pc, #16]	; (400408 <pll_is_locked+0x28>)
  4003f8:	4798      	blx	r3
  4003fa:	4603      	mov	r3, r0
	}
}
  4003fc:	4618      	mov	r0, r3
  4003fe:	3708      	adds	r7, #8
  400400:	46bd      	mov	sp, r7
  400402:	bd80      	pop	{r7, pc}
  400404:	00400bdd 	.word	0x00400bdd
  400408:	00400bf9 	.word	0x00400bf9

0040040c <pll_enable_source>:

static inline void pll_enable_source(enum pll_source e_src)
{
  40040c:	b580      	push	{r7, lr}
  40040e:	b082      	sub	sp, #8
  400410:	af00      	add	r7, sp, #0
  400412:	4603      	mov	r3, r0
  400414:	71fb      	strb	r3, [r7, #7]
	switch (e_src) {
  400416:	79fb      	ldrb	r3, [r7, #7]
  400418:	3b03      	subs	r3, #3
  40041a:	2b04      	cmp	r3, #4
  40041c:	d808      	bhi.n	400430 <pll_enable_source+0x24>
	case PLL_SRC_MAINCK_4M_RC:
	case PLL_SRC_MAINCK_8M_RC:
	case PLL_SRC_MAINCK_12M_RC:
	case PLL_SRC_MAINCK_XTAL:
	case PLL_SRC_MAINCK_BYPASS:
		osc_enable(e_src);
  40041e:	79fb      	ldrb	r3, [r7, #7]
  400420:	4618      	mov	r0, r3
  400422:	4b06      	ldr	r3, [pc, #24]	; (40043c <pll_enable_source+0x30>)
  400424:	4798      	blx	r3
		osc_wait_ready(e_src);
  400426:	79fb      	ldrb	r3, [r7, #7]
  400428:	4618      	mov	r0, r3
  40042a:	4b05      	ldr	r3, [pc, #20]	; (400440 <pll_enable_source+0x34>)
  40042c:	4798      	blx	r3
		break;
  40042e:	e000      	b.n	400432 <pll_enable_source+0x26>

	default:
		Assert(false);
		break;
  400430:	bf00      	nop
	}
}
  400432:	bf00      	nop
  400434:	3708      	adds	r7, #8
  400436:	46bd      	mov	sp, r7
  400438:	bd80      	pop	{r7, pc}
  40043a:	bf00      	nop
  40043c:	0040019d 	.word	0x0040019d
  400440:	00400309 	.word	0x00400309

00400444 <pll_wait_for_lock>:
 *
 * \retval STATUS_OK The PLL is now locked.
 * \retval ERR_TIMEOUT Timed out waiting for PLL to become locked.
 */
static inline int pll_wait_for_lock(unsigned int pll_id)
{
  400444:	b580      	push	{r7, lr}
  400446:	b082      	sub	sp, #8
  400448:	af00      	add	r7, sp, #0
  40044a:	6078      	str	r0, [r7, #4]
	Assert(pll_id < NR_PLLS);

	while (!pll_is_locked(pll_id)) {
  40044c:	bf00      	nop
  40044e:	6878      	ldr	r0, [r7, #4]
  400450:	4b04      	ldr	r3, [pc, #16]	; (400464 <pll_wait_for_lock+0x20>)
  400452:	4798      	blx	r3
  400454:	4603      	mov	r3, r0
  400456:	2b00      	cmp	r3, #0
  400458:	d0f9      	beq.n	40044e <pll_wait_for_lock+0xa>
		/* Do nothing */
	}

	return 0;
  40045a:	2300      	movs	r3, #0
}
  40045c:	4618      	mov	r0, r3
  40045e:	3708      	adds	r7, #8
  400460:	46bd      	mov	sp, r7
  400462:	bd80      	pop	{r7, pc}
  400464:	004003e1 	.word	0x004003e1

00400468 <sysclk_get_main_hz>:
 */
#if (defined CONFIG_SYSCLK_DEFAULT_RETURNS_SLOW_OSC)
extern uint32_t sysclk_initialized;
#endif
static inline uint32_t sysclk_get_main_hz(void)
{
  400468:	b580      	push	{r7, lr}
  40046a:	af00      	add	r7, sp, #0
	} else if (CONFIG_SYSCLK_SOURCE == SYSCLK_SRC_MAINCK_BYPASS) {
		return OSC_MAINCK_BYPASS_HZ;
	}
#ifdef CONFIG_PLL0_SOURCE
	else if (CONFIG_SYSCLK_SOURCE == SYSCLK_SRC_PLLACK) {
		return pll_get_default_rate(0);
  40046c:	2006      	movs	r0, #6
  40046e:	4b05      	ldr	r3, [pc, #20]	; (400484 <sysclk_get_main_hz+0x1c>)
  400470:	4798      	blx	r3
  400472:	4602      	mov	r2, r0
  400474:	4613      	mov	r3, r2
  400476:	009b      	lsls	r3, r3, #2
  400478:	4413      	add	r3, r2
  40047a:	009a      	lsls	r2, r3, #2
  40047c:	4413      	add	r3, r2
#endif
	else {
		/* unhandled_case(CONFIG_SYSCLK_SOURCE); */
		return 0;
	}
}
  40047e:	4618      	mov	r0, r3
  400480:	bd80      	pop	{r7, pc}
  400482:	bf00      	nop
  400484:	00400295 	.word	0x00400295

00400488 <sysclk_get_cpu_hz>:
 * clocks.
 *
 * \return Frequency of the CPU clock, in Hz.
 */
static inline uint32_t sysclk_get_cpu_hz(void)
{
  400488:	b580      	push	{r7, lr}
  40048a:	af00      	add	r7, sp, #0
	/* CONFIG_SYSCLK_PRES is the register value for setting the expected */
	/* prescaler, not an immediate value. */
	return sysclk_get_main_hz() /
  40048c:	4b02      	ldr	r3, [pc, #8]	; (400498 <sysclk_get_cpu_hz+0x10>)
  40048e:	4798      	blx	r3
  400490:	4603      	mov	r3, r0
  400492:	099b      	lsrs	r3, r3, #6
		((CONFIG_SYSCLK_PRES == SYSCLK_PRES_3) ? 3 :
			(1 << (CONFIG_SYSCLK_PRES >> PMC_MCKR_PRES_Pos)));
}
  400494:	4618      	mov	r0, r3
  400496:	bd80      	pop	{r7, pc}
  400498:	00400469 	.word	0x00400469

0040049c <sysclk_init>:
	pmc_disable_udpck();
}
#endif // CONFIG_USBCLK_SOURCE

void sysclk_init(void)
{
  40049c:	b590      	push	{r4, r7, lr}
  40049e:	b083      	sub	sp, #12
  4004a0:	af00      	add	r7, sp, #0
	struct pll_config pllcfg;

	/* Set flash wait state to max in case the below clock switching. */
	system_init_flash(CHIP_FREQ_CPU_MAX);
  4004a2:	4813      	ldr	r0, [pc, #76]	; (4004f0 <sysclk_init+0x54>)
  4004a4:	4b13      	ldr	r3, [pc, #76]	; (4004f4 <sysclk_init+0x58>)
  4004a6:	4798      	blx	r3
		pmc_switch_mck_to_mainck(CONFIG_SYSCLK_PRES);
	}

#ifdef CONFIG_PLL0_SOURCE
	else if (CONFIG_SYSCLK_SOURCE == SYSCLK_SRC_PLLACK) {
		pll_enable_source(CONFIG_PLL0_SOURCE);
  4004a8:	2006      	movs	r0, #6
  4004aa:	4b13      	ldr	r3, [pc, #76]	; (4004f8 <sysclk_init+0x5c>)
  4004ac:	4798      	blx	r3
		pll_config_defaults(&pllcfg, 0);
  4004ae:	1d38      	adds	r0, r7, #4
  4004b0:	2319      	movs	r3, #25
  4004b2:	2201      	movs	r2, #1
  4004b4:	2106      	movs	r1, #6
  4004b6:	4c11      	ldr	r4, [pc, #68]	; (4004fc <sysclk_init+0x60>)
  4004b8:	47a0      	blx	r4
		pll_enable(&pllcfg, 0);
  4004ba:	1d3b      	adds	r3, r7, #4
  4004bc:	2100      	movs	r1, #0
  4004be:	4618      	mov	r0, r3
  4004c0:	4b0f      	ldr	r3, [pc, #60]	; (400500 <sysclk_init+0x64>)
  4004c2:	4798      	blx	r3
		pll_wait_for_lock(0);
  4004c4:	2000      	movs	r0, #0
  4004c6:	4b0f      	ldr	r3, [pc, #60]	; (400504 <sysclk_init+0x68>)
  4004c8:	4798      	blx	r3
		pmc_mck_set_division(CONFIG_SYSCLK_DIV);
  4004ca:	2002      	movs	r0, #2
  4004cc:	4b0e      	ldr	r3, [pc, #56]	; (400508 <sysclk_init+0x6c>)
  4004ce:	4798      	blx	r3
		pmc_switch_mck_to_pllack(CONFIG_SYSCLK_PRES);
  4004d0:	2060      	movs	r0, #96	; 0x60
  4004d2:	4b0e      	ldr	r3, [pc, #56]	; (40050c <sysclk_init+0x70>)
  4004d4:	4798      	blx	r3
		pll_wait_for_lock(1);
		pmc_mck_set_division(CONFIG_SYSCLK_DIV);
		pmc_switch_mck_to_upllck(CONFIG_SYSCLK_PRES);
	}
	/* Update the SystemFrequency variable */
	SystemCoreClockUpdate();
  4004d6:	4b0e      	ldr	r3, [pc, #56]	; (400510 <sysclk_init+0x74>)
  4004d8:	4798      	blx	r3

	/* Set a flash wait state depending on the new cpu frequency */
	system_init_flash(sysclk_get_cpu_hz());
  4004da:	4b0e      	ldr	r3, [pc, #56]	; (400514 <sysclk_init+0x78>)
  4004dc:	4798      	blx	r3
  4004de:	4603      	mov	r3, r0
  4004e0:	4618      	mov	r0, r3
  4004e2:	4b04      	ldr	r3, [pc, #16]	; (4004f4 <sysclk_init+0x58>)
  4004e4:	4798      	blx	r3

#if (defined CONFIG_SYSCLK_DEFAULT_RETURNS_SLOW_OSC)
	/* Signal that the internal frequencies are setup */
	sysclk_initialized = 1;
#endif
}
  4004e6:	bf00      	nop
  4004e8:	370c      	adds	r7, #12
  4004ea:	46bd      	mov	sp, r7
  4004ec:	bd90      	pop	{r4, r7, pc}
  4004ee:	bf00      	nop
  4004f0:	11e1a300 	.word	0x11e1a300
  4004f4:	00401495 	.word	0x00401495
  4004f8:	0040040d 	.word	0x0040040d
  4004fc:	00400335 	.word	0x00400335
  400500:	004003a1 	.word	0x004003a1
  400504:	00400445 	.word	0x00400445
  400508:	00400951 	.word	0x00400951
  40050c:	004009cd 	.word	0x004009cd
  400510:	00401329 	.word	0x00401329
  400514:	00400489 	.word	0x00400489

00400518 <_read>:
int __attribute__((weak))
_read (int file, char * ptr, int len); // Remove GCC compiler warning

int __attribute__((weak))
_read (int file, char * ptr, int len)
{
  400518:	b580      	push	{r7, lr}
  40051a:	b086      	sub	sp, #24
  40051c:	af00      	add	r7, sp, #0
  40051e:	60f8      	str	r0, [r7, #12]
  400520:	60b9      	str	r1, [r7, #8]
  400522:	607a      	str	r2, [r7, #4]
	int nChars = 0;
  400524:	2300      	movs	r3, #0
  400526:	617b      	str	r3, [r7, #20]

	if (file != 0) {
  400528:	68fb      	ldr	r3, [r7, #12]
  40052a:	2b00      	cmp	r3, #0
  40052c:	d012      	beq.n	400554 <_read+0x3c>
		return -1;
  40052e:	f04f 33ff 	mov.w	r3, #4294967295
  400532:	e013      	b.n	40055c <_read+0x44>
	}

	for (; len > 0; --len) {
		ptr_get(stdio_base, ptr);
  400534:	4b0b      	ldr	r3, [pc, #44]	; (400564 <_read+0x4c>)
  400536:	681b      	ldr	r3, [r3, #0]
  400538:	4a0b      	ldr	r2, [pc, #44]	; (400568 <_read+0x50>)
  40053a:	6812      	ldr	r2, [r2, #0]
  40053c:	68b9      	ldr	r1, [r7, #8]
  40053e:	4610      	mov	r0, r2
  400540:	4798      	blx	r3
		ptr++;
  400542:	68bb      	ldr	r3, [r7, #8]
  400544:	3301      	adds	r3, #1
  400546:	60bb      	str	r3, [r7, #8]
		nChars++;
  400548:	697b      	ldr	r3, [r7, #20]
  40054a:	3301      	adds	r3, #1
  40054c:	617b      	str	r3, [r7, #20]

	if (file != 0) {
		return -1;
	}

	for (; len > 0; --len) {
  40054e:	687b      	ldr	r3, [r7, #4]
  400550:	3b01      	subs	r3, #1
  400552:	607b      	str	r3, [r7, #4]
  400554:	687b      	ldr	r3, [r7, #4]
  400556:	2b00      	cmp	r3, #0
  400558:	dcec      	bgt.n	400534 <_read+0x1c>
		ptr_get(stdio_base, ptr);
		ptr++;
		nChars++;
	}
	return nChars;
  40055a:	697b      	ldr	r3, [r7, #20]
}
  40055c:	4618      	mov	r0, r3
  40055e:	3718      	adds	r7, #24
  400560:	46bd      	mov	sp, r7
  400562:	bd80      	pop	{r7, pc}
  400564:	2040090c 	.word	0x2040090c
  400568:	20400914 	.word	0x20400914

0040056c <_write>:
int __attribute__((weak))
_write (int file, const char *ptr, int len);

int __attribute__((weak))
_write (int file, const char *ptr, int len)
{
  40056c:	b580      	push	{r7, lr}
  40056e:	b086      	sub	sp, #24
  400570:	af00      	add	r7, sp, #0
  400572:	60f8      	str	r0, [r7, #12]
  400574:	60b9      	str	r1, [r7, #8]
  400576:	607a      	str	r2, [r7, #4]
	int nChars = 0;
  400578:	2300      	movs	r3, #0
  40057a:	617b      	str	r3, [r7, #20]

	if ((file != 1) && (file != 2) && (file!=3)) {
  40057c:	68fb      	ldr	r3, [r7, #12]
  40057e:	2b01      	cmp	r3, #1
  400580:	d01e      	beq.n	4005c0 <_write+0x54>
  400582:	68fb      	ldr	r3, [r7, #12]
  400584:	2b02      	cmp	r3, #2
  400586:	d01b      	beq.n	4005c0 <_write+0x54>
  400588:	68fb      	ldr	r3, [r7, #12]
  40058a:	2b03      	cmp	r3, #3
  40058c:	d018      	beq.n	4005c0 <_write+0x54>
		return -1;
  40058e:	f04f 33ff 	mov.w	r3, #4294967295
  400592:	e019      	b.n	4005c8 <_write+0x5c>
	}

	for (; len != 0; --len) {
		if (ptr_put(stdio_base, *ptr++) < 0) {
  400594:	4b0e      	ldr	r3, [pc, #56]	; (4005d0 <_write+0x64>)
  400596:	681a      	ldr	r2, [r3, #0]
  400598:	4b0e      	ldr	r3, [pc, #56]	; (4005d4 <_write+0x68>)
  40059a:	6818      	ldr	r0, [r3, #0]
  40059c:	68bb      	ldr	r3, [r7, #8]
  40059e:	1c59      	adds	r1, r3, #1
  4005a0:	60b9      	str	r1, [r7, #8]
  4005a2:	781b      	ldrb	r3, [r3, #0]
  4005a4:	4619      	mov	r1, r3
  4005a6:	4790      	blx	r2
  4005a8:	4603      	mov	r3, r0
  4005aa:	2b00      	cmp	r3, #0
  4005ac:	da02      	bge.n	4005b4 <_write+0x48>
			return -1;
  4005ae:	f04f 33ff 	mov.w	r3, #4294967295
  4005b2:	e009      	b.n	4005c8 <_write+0x5c>
		}
		++nChars;
  4005b4:	697b      	ldr	r3, [r7, #20]
  4005b6:	3301      	adds	r3, #1
  4005b8:	617b      	str	r3, [r7, #20]

	if ((file != 1) && (file != 2) && (file!=3)) {
		return -1;
	}

	for (; len != 0; --len) {
  4005ba:	687b      	ldr	r3, [r7, #4]
  4005bc:	3b01      	subs	r3, #1
  4005be:	607b      	str	r3, [r7, #4]
  4005c0:	687b      	ldr	r3, [r7, #4]
  4005c2:	2b00      	cmp	r3, #0
  4005c4:	d1e6      	bne.n	400594 <_write+0x28>
		if (ptr_put(stdio_base, *ptr++) < 0) {
			return -1;
		}
		++nChars;
	}
	return nChars;
  4005c6:	697b      	ldr	r3, [r7, #20]
}
  4005c8:	4618      	mov	r0, r3
  4005ca:	3718      	adds	r7, #24
  4005cc:	46bd      	mov	sp, r7
  4005ce:	bd80      	pop	{r7, pc}
  4005d0:	20400910 	.word	0x20400910
  4005d4:	20400914 	.word	0x20400914

004005d8 <pio_pull_up>:
 * \param ul_pull_up_enable Indicates if the pin(s) internal pull-up shall be
 * configured.
 */
void pio_pull_up(Pio *p_pio, const uint32_t ul_mask,
		const uint32_t ul_pull_up_enable)
{
  4005d8:	b480      	push	{r7}
  4005da:	b085      	sub	sp, #20
  4005dc:	af00      	add	r7, sp, #0
  4005de:	60f8      	str	r0, [r7, #12]
  4005e0:	60b9      	str	r1, [r7, #8]
  4005e2:	607a      	str	r2, [r7, #4]
	/* Enable the pull-up(s) if necessary */
	if (ul_pull_up_enable) {
  4005e4:	687b      	ldr	r3, [r7, #4]
  4005e6:	2b00      	cmp	r3, #0
  4005e8:	d003      	beq.n	4005f2 <pio_pull_up+0x1a>
		p_pio->PIO_PUER = ul_mask;
  4005ea:	68fb      	ldr	r3, [r7, #12]
  4005ec:	68ba      	ldr	r2, [r7, #8]
  4005ee:	665a      	str	r2, [r3, #100]	; 0x64
	} else {
		p_pio->PIO_PUDR = ul_mask;
	}
}
  4005f0:	e002      	b.n	4005f8 <pio_pull_up+0x20>
{
	/* Enable the pull-up(s) if necessary */
	if (ul_pull_up_enable) {
		p_pio->PIO_PUER = ul_mask;
	} else {
		p_pio->PIO_PUDR = ul_mask;
  4005f2:	68fb      	ldr	r3, [r7, #12]
  4005f4:	68ba      	ldr	r2, [r7, #8]
  4005f6:	661a      	str	r2, [r3, #96]	; 0x60
	}
}
  4005f8:	bf00      	nop
  4005fa:	3714      	adds	r7, #20
  4005fc:	46bd      	mov	sp, r7
  4005fe:	f85d 7b04 	ldr.w	r7, [sp], #4
  400602:	4770      	bx	lr

00400604 <pio_set>:
 *
 * \param p_pio Pointer to a PIO instance.
 * \param ul_mask Bitmask of one or more pin(s) to configure.
 */
void pio_set(Pio *p_pio, const uint32_t ul_mask)
{
  400604:	b480      	push	{r7}
  400606:	b083      	sub	sp, #12
  400608:	af00      	add	r7, sp, #0
  40060a:	6078      	str	r0, [r7, #4]
  40060c:	6039      	str	r1, [r7, #0]
	p_pio->PIO_SODR = ul_mask;
  40060e:	687b      	ldr	r3, [r7, #4]
  400610:	683a      	ldr	r2, [r7, #0]
  400612:	631a      	str	r2, [r3, #48]	; 0x30
}
  400614:	bf00      	nop
  400616:	370c      	adds	r7, #12
  400618:	46bd      	mov	sp, r7
  40061a:	f85d 7b04 	ldr.w	r7, [sp], #4
  40061e:	4770      	bx	lr

00400620 <pio_clear>:
 *
 * \param p_pio Pointer to a PIO instance.
 * \param ul_mask Bitmask of one or more pin(s) to configure.
 */
void pio_clear(Pio *p_pio, const uint32_t ul_mask)
{
  400620:	b480      	push	{r7}
  400622:	b083      	sub	sp, #12
  400624:	af00      	add	r7, sp, #0
  400626:	6078      	str	r0, [r7, #4]
  400628:	6039      	str	r1, [r7, #0]
	p_pio->PIO_CODR = ul_mask;
  40062a:	687b      	ldr	r3, [r7, #4]
  40062c:	683a      	ldr	r2, [r7, #0]
  40062e:	635a      	str	r2, [r3, #52]	; 0x34
}
  400630:	bf00      	nop
  400632:	370c      	adds	r7, #12
  400634:	46bd      	mov	sp, r7
  400636:	f85d 7b04 	ldr.w	r7, [sp], #4
  40063a:	4770      	bx	lr

0040063c <pio_set_peripheral>:
 * \param ul_type PIO type.
 * \param ul_mask Bitmask of one or more pin(s) to configure.
 */
void pio_set_peripheral(Pio *p_pio, const pio_type_t ul_type,
		const uint32_t ul_mask)
{
  40063c:	b480      	push	{r7}
  40063e:	b087      	sub	sp, #28
  400640:	af00      	add	r7, sp, #0
  400642:	60f8      	str	r0, [r7, #12]
  400644:	60b9      	str	r1, [r7, #8]
  400646:	607a      	str	r2, [r7, #4]
	uint32_t ul_sr;

	/* Disable interrupts on the pin(s) */
	p_pio->PIO_IDR = ul_mask;
  400648:	68fb      	ldr	r3, [r7, #12]
  40064a:	687a      	ldr	r2, [r7, #4]
  40064c:	645a      	str	r2, [r3, #68]	; 0x44

#if (SAM3S || SAM3N || SAM4S || SAM4E || SAM4N || SAM4C || SAMG || SAM4CP || SAM4CM || SAMV71 || SAMV70 || SAME70 || SAMS70)
	switch (ul_type) {
  40064e:	68bb      	ldr	r3, [r7, #8]
  400650:	f1b3 5fc0 	cmp.w	r3, #402653184	; 0x18000000
  400654:	d04a      	beq.n	4006ec <pio_set_peripheral+0xb0>
  400656:	f1b3 5fc0 	cmp.w	r3, #402653184	; 0x18000000
  40065a:	d808      	bhi.n	40066e <pio_set_peripheral+0x32>
  40065c:	f1b3 6f00 	cmp.w	r3, #134217728	; 0x8000000
  400660:	d016      	beq.n	400690 <pio_set_peripheral+0x54>
  400662:	f1b3 5f80 	cmp.w	r3, #268435456	; 0x10000000
  400666:	d02c      	beq.n	4006c2 <pio_set_peripheral+0x86>
  400668:	2b00      	cmp	r3, #0
  40066a:	d069      	beq.n	400740 <pio_set_peripheral+0x104>
  40066c:	e064      	b.n	400738 <pio_set_peripheral+0xfc>
  40066e:	f1b3 5f20 	cmp.w	r3, #671088640	; 0x28000000
  400672:	d065      	beq.n	400740 <pio_set_peripheral+0x104>
  400674:	f1b3 5f20 	cmp.w	r3, #671088640	; 0x28000000
  400678:	d803      	bhi.n	400682 <pio_set_peripheral+0x46>
  40067a:	f1b3 5f00 	cmp.w	r3, #536870912	; 0x20000000
  40067e:	d04a      	beq.n	400716 <pio_set_peripheral+0xda>
  400680:	e05a      	b.n	400738 <pio_set_peripheral+0xfc>
  400682:	f1b3 5f40 	cmp.w	r3, #805306368	; 0x30000000
  400686:	d05b      	beq.n	400740 <pio_set_peripheral+0x104>
  400688:	f1b3 5f60 	cmp.w	r3, #939524096	; 0x38000000
  40068c:	d058      	beq.n	400740 <pio_set_peripheral+0x104>
  40068e:	e053      	b.n	400738 <pio_set_peripheral+0xfc>
	case PIO_PERIPH_A:
		ul_sr = p_pio->PIO_ABCDSR[0];
  400690:	68fb      	ldr	r3, [r7, #12]
  400692:	6f1b      	ldr	r3, [r3, #112]	; 0x70
  400694:	617b      	str	r3, [r7, #20]
		p_pio->PIO_ABCDSR[0] &= (~ul_mask & ul_sr);
  400696:	68fb      	ldr	r3, [r7, #12]
  400698:	6f1a      	ldr	r2, [r3, #112]	; 0x70
  40069a:	687b      	ldr	r3, [r7, #4]
  40069c:	43d9      	mvns	r1, r3
  40069e:	697b      	ldr	r3, [r7, #20]
  4006a0:	400b      	ands	r3, r1
  4006a2:	401a      	ands	r2, r3
  4006a4:	68fb      	ldr	r3, [r7, #12]
  4006a6:	671a      	str	r2, [r3, #112]	; 0x70

		ul_sr = p_pio->PIO_ABCDSR[1];
  4006a8:	68fb      	ldr	r3, [r7, #12]
  4006aa:	6f5b      	ldr	r3, [r3, #116]	; 0x74
  4006ac:	617b      	str	r3, [r7, #20]
		p_pio->PIO_ABCDSR[1] &= (~ul_mask & ul_sr);
  4006ae:	68fb      	ldr	r3, [r7, #12]
  4006b0:	6f5a      	ldr	r2, [r3, #116]	; 0x74
  4006b2:	687b      	ldr	r3, [r7, #4]
  4006b4:	43d9      	mvns	r1, r3
  4006b6:	697b      	ldr	r3, [r7, #20]
  4006b8:	400b      	ands	r3, r1
  4006ba:	401a      	ands	r2, r3
  4006bc:	68fb      	ldr	r3, [r7, #12]
  4006be:	675a      	str	r2, [r3, #116]	; 0x74
		break;
  4006c0:	e03a      	b.n	400738 <pio_set_peripheral+0xfc>
	case PIO_PERIPH_B:
		ul_sr = p_pio->PIO_ABCDSR[0];
  4006c2:	68fb      	ldr	r3, [r7, #12]
  4006c4:	6f1b      	ldr	r3, [r3, #112]	; 0x70
  4006c6:	617b      	str	r3, [r7, #20]
		p_pio->PIO_ABCDSR[0] = (ul_mask | ul_sr);
  4006c8:	687a      	ldr	r2, [r7, #4]
  4006ca:	697b      	ldr	r3, [r7, #20]
  4006cc:	431a      	orrs	r2, r3
  4006ce:	68fb      	ldr	r3, [r7, #12]
  4006d0:	671a      	str	r2, [r3, #112]	; 0x70

		ul_sr = p_pio->PIO_ABCDSR[1];
  4006d2:	68fb      	ldr	r3, [r7, #12]
  4006d4:	6f5b      	ldr	r3, [r3, #116]	; 0x74
  4006d6:	617b      	str	r3, [r7, #20]
		p_pio->PIO_ABCDSR[1] &= (~ul_mask & ul_sr);
  4006d8:	68fb      	ldr	r3, [r7, #12]
  4006da:	6f5a      	ldr	r2, [r3, #116]	; 0x74
  4006dc:	687b      	ldr	r3, [r7, #4]
  4006de:	43d9      	mvns	r1, r3
  4006e0:	697b      	ldr	r3, [r7, #20]
  4006e2:	400b      	ands	r3, r1
  4006e4:	401a      	ands	r2, r3
  4006e6:	68fb      	ldr	r3, [r7, #12]
  4006e8:	675a      	str	r2, [r3, #116]	; 0x74
		break;
  4006ea:	e025      	b.n	400738 <pio_set_peripheral+0xfc>
#if (!SAMG)
	case PIO_PERIPH_C:
		ul_sr = p_pio->PIO_ABCDSR[0];
  4006ec:	68fb      	ldr	r3, [r7, #12]
  4006ee:	6f1b      	ldr	r3, [r3, #112]	; 0x70
  4006f0:	617b      	str	r3, [r7, #20]
		p_pio->PIO_ABCDSR[0] &= (~ul_mask & ul_sr);
  4006f2:	68fb      	ldr	r3, [r7, #12]
  4006f4:	6f1a      	ldr	r2, [r3, #112]	; 0x70
  4006f6:	687b      	ldr	r3, [r7, #4]
  4006f8:	43d9      	mvns	r1, r3
  4006fa:	697b      	ldr	r3, [r7, #20]
  4006fc:	400b      	ands	r3, r1
  4006fe:	401a      	ands	r2, r3
  400700:	68fb      	ldr	r3, [r7, #12]
  400702:	671a      	str	r2, [r3, #112]	; 0x70

		ul_sr = p_pio->PIO_ABCDSR[1];
  400704:	68fb      	ldr	r3, [r7, #12]
  400706:	6f5b      	ldr	r3, [r3, #116]	; 0x74
  400708:	617b      	str	r3, [r7, #20]
		p_pio->PIO_ABCDSR[1] = (ul_mask | ul_sr);
  40070a:	687a      	ldr	r2, [r7, #4]
  40070c:	697b      	ldr	r3, [r7, #20]
  40070e:	431a      	orrs	r2, r3
  400710:	68fb      	ldr	r3, [r7, #12]
  400712:	675a      	str	r2, [r3, #116]	; 0x74
		break;
  400714:	e010      	b.n	400738 <pio_set_peripheral+0xfc>
	case PIO_PERIPH_D:
		ul_sr = p_pio->PIO_ABCDSR[0];
  400716:	68fb      	ldr	r3, [r7, #12]
  400718:	6f1b      	ldr	r3, [r3, #112]	; 0x70
  40071a:	617b      	str	r3, [r7, #20]
		p_pio->PIO_ABCDSR[0] = (ul_mask | ul_sr);
  40071c:	687a      	ldr	r2, [r7, #4]
  40071e:	697b      	ldr	r3, [r7, #20]
  400720:	431a      	orrs	r2, r3
  400722:	68fb      	ldr	r3, [r7, #12]
  400724:	671a      	str	r2, [r3, #112]	; 0x70

		ul_sr = p_pio->PIO_ABCDSR[1];
  400726:	68fb      	ldr	r3, [r7, #12]
  400728:	6f5b      	ldr	r3, [r3, #116]	; 0x74
  40072a:	617b      	str	r3, [r7, #20]
		p_pio->PIO_ABCDSR[1] = (ul_mask | ul_sr);
  40072c:	687a      	ldr	r2, [r7, #4]
  40072e:	697b      	ldr	r3, [r7, #20]
  400730:	431a      	orrs	r2, r3
  400732:	68fb      	ldr	r3, [r7, #12]
  400734:	675a      	str	r2, [r3, #116]	; 0x74
		break;
  400736:	bf00      	nop
#else
#error "Unsupported device"
#endif

	/* Remove the pins from under the control of PIO */
	p_pio->PIO_PDR = ul_mask;
  400738:	68fb      	ldr	r3, [r7, #12]
  40073a:	687a      	ldr	r2, [r7, #4]
  40073c:	605a      	str	r2, [r3, #4]
  40073e:	e000      	b.n	400742 <pio_set_peripheral+0x106>
		/* Other types are invalid in this function */
	case PIO_INPUT:
	case PIO_OUTPUT_0:
	case PIO_OUTPUT_1:
	case PIO_NOT_A_PIN:
		return;
  400740:	bf00      	nop
#error "Unsupported device"
#endif

	/* Remove the pins from under the control of PIO */
	p_pio->PIO_PDR = ul_mask;
}
  400742:	371c      	adds	r7, #28
  400744:	46bd      	mov	sp, r7
  400746:	f85d 7b04 	ldr.w	r7, [sp], #4
  40074a:	4770      	bx	lr

0040074c <pio_set_output>:
 */
void pio_set_output(Pio *p_pio, const uint32_t ul_mask,
		const uint32_t ul_default_level,
		const uint32_t ul_multidrive_enable,
		const uint32_t ul_pull_up_enable)
{
  40074c:	b580      	push	{r7, lr}
  40074e:	b084      	sub	sp, #16
  400750:	af00      	add	r7, sp, #0
  400752:	60f8      	str	r0, [r7, #12]
  400754:	60b9      	str	r1, [r7, #8]
  400756:	607a      	str	r2, [r7, #4]
  400758:	603b      	str	r3, [r7, #0]
	pio_disable_interrupt(p_pio, ul_mask);
  40075a:	68b9      	ldr	r1, [r7, #8]
  40075c:	68f8      	ldr	r0, [r7, #12]
  40075e:	4b12      	ldr	r3, [pc, #72]	; (4007a8 <pio_set_output+0x5c>)
  400760:	4798      	blx	r3
	pio_pull_up(p_pio, ul_mask, ul_pull_up_enable);
  400762:	69ba      	ldr	r2, [r7, #24]
  400764:	68b9      	ldr	r1, [r7, #8]
  400766:	68f8      	ldr	r0, [r7, #12]
  400768:	4b10      	ldr	r3, [pc, #64]	; (4007ac <pio_set_output+0x60>)
  40076a:	4798      	blx	r3

	/* Enable multi-drive if necessary */
	if (ul_multidrive_enable) {
  40076c:	683b      	ldr	r3, [r7, #0]
  40076e:	2b00      	cmp	r3, #0
  400770:	d003      	beq.n	40077a <pio_set_output+0x2e>
		p_pio->PIO_MDER = ul_mask;
  400772:	68fb      	ldr	r3, [r7, #12]
  400774:	68ba      	ldr	r2, [r7, #8]
  400776:	651a      	str	r2, [r3, #80]	; 0x50
  400778:	e002      	b.n	400780 <pio_set_output+0x34>
	} else {
		p_pio->PIO_MDDR = ul_mask;
  40077a:	68fb      	ldr	r3, [r7, #12]
  40077c:	68ba      	ldr	r2, [r7, #8]
  40077e:	655a      	str	r2, [r3, #84]	; 0x54
	}

	/* Set default value */
	if (ul_default_level) {
  400780:	687b      	ldr	r3, [r7, #4]
  400782:	2b00      	cmp	r3, #0
  400784:	d003      	beq.n	40078e <pio_set_output+0x42>
		p_pio->PIO_SODR = ul_mask;
  400786:	68fb      	ldr	r3, [r7, #12]
  400788:	68ba      	ldr	r2, [r7, #8]
  40078a:	631a      	str	r2, [r3, #48]	; 0x30
  40078c:	e002      	b.n	400794 <pio_set_output+0x48>
	} else {
		p_pio->PIO_CODR = ul_mask;
  40078e:	68fb      	ldr	r3, [r7, #12]
  400790:	68ba      	ldr	r2, [r7, #8]
  400792:	635a      	str	r2, [r3, #52]	; 0x34
	}

	/* Configure pin(s) as output(s) */
	p_pio->PIO_OER = ul_mask;
  400794:	68fb      	ldr	r3, [r7, #12]
  400796:	68ba      	ldr	r2, [r7, #8]
  400798:	611a      	str	r2, [r3, #16]
	p_pio->PIO_PER = ul_mask;
  40079a:	68fb      	ldr	r3, [r7, #12]
  40079c:	68ba      	ldr	r2, [r7, #8]
  40079e:	601a      	str	r2, [r3, #0]
}
  4007a0:	bf00      	nop
  4007a2:	3710      	adds	r7, #16
  4007a4:	46bd      	mov	sp, r7
  4007a6:	bd80      	pop	{r7, pc}
  4007a8:	004007d9 	.word	0x004007d9
  4007ac:	004005d9 	.word	0x004005d9

004007b0 <pio_get_output_data_status>:
 * \retval 1 At least one PIO is configured to output a high level.
 * \retval 0 All PIOs are configured to output a low level.
 */
uint32_t pio_get_output_data_status(const Pio *p_pio,
		const uint32_t ul_mask)
{
  4007b0:	b480      	push	{r7}
  4007b2:	b083      	sub	sp, #12
  4007b4:	af00      	add	r7, sp, #0
  4007b6:	6078      	str	r0, [r7, #4]
  4007b8:	6039      	str	r1, [r7, #0]
	if ((p_pio->PIO_ODSR & ul_mask) == 0) {
  4007ba:	687b      	ldr	r3, [r7, #4]
  4007bc:	6b9a      	ldr	r2, [r3, #56]	; 0x38
  4007be:	683b      	ldr	r3, [r7, #0]
  4007c0:	4013      	ands	r3, r2
  4007c2:	2b00      	cmp	r3, #0
  4007c4:	d101      	bne.n	4007ca <pio_get_output_data_status+0x1a>
		return 0;
  4007c6:	2300      	movs	r3, #0
  4007c8:	e000      	b.n	4007cc <pio_get_output_data_status+0x1c>
	} else {
		return 1;
  4007ca:	2301      	movs	r3, #1
	}
}
  4007cc:	4618      	mov	r0, r3
  4007ce:	370c      	adds	r7, #12
  4007d0:	46bd      	mov	sp, r7
  4007d2:	f85d 7b04 	ldr.w	r7, [sp], #4
  4007d6:	4770      	bx	lr

004007d8 <pio_disable_interrupt>:
 *
 * \param p_pio Pointer to a PIO instance.
 * \param ul_mask Interrupt sources bit map.
 */
void pio_disable_interrupt(Pio *p_pio, const uint32_t ul_mask)
{
  4007d8:	b480      	push	{r7}
  4007da:	b083      	sub	sp, #12
  4007dc:	af00      	add	r7, sp, #0
  4007de:	6078      	str	r0, [r7, #4]
  4007e0:	6039      	str	r1, [r7, #0]
	p_pio->PIO_IDR = ul_mask;
  4007e2:	687b      	ldr	r3, [r7, #4]
  4007e4:	683a      	ldr	r2, [r7, #0]
  4007e6:	645a      	str	r2, [r3, #68]	; 0x44
}
  4007e8:	bf00      	nop
  4007ea:	370c      	adds	r7, #12
  4007ec:	46bd      	mov	sp, r7
  4007ee:	f85d 7b04 	ldr.w	r7, [sp], #4
  4007f2:	4770      	bx	lr

004007f4 <pio_get_interrupt_status>:
 * \param p_pio Pointer to a PIO instance.
 *
 * \return The interrupt status value.
 */
uint32_t pio_get_interrupt_status(const Pio *p_pio)
{
  4007f4:	b480      	push	{r7}
  4007f6:	b083      	sub	sp, #12
  4007f8:	af00      	add	r7, sp, #0
  4007fa:	6078      	str	r0, [r7, #4]
	return p_pio->PIO_ISR;
  4007fc:	687b      	ldr	r3, [r7, #4]
  4007fe:	6cdb      	ldr	r3, [r3, #76]	; 0x4c
}
  400800:	4618      	mov	r0, r3
  400802:	370c      	adds	r7, #12
  400804:	46bd      	mov	sp, r7
  400806:	f85d 7b04 	ldr.w	r7, [sp], #4
  40080a:	4770      	bx	lr

0040080c <pio_get_interrupt_mask>:
 * \param p_pio Pointer to a PIO instance.
 *
 * \return The interrupt mask value.
 */
uint32_t pio_get_interrupt_mask(const Pio *p_pio)
{
  40080c:	b480      	push	{r7}
  40080e:	b083      	sub	sp, #12
  400810:	af00      	add	r7, sp, #0
  400812:	6078      	str	r0, [r7, #4]
	return p_pio->PIO_IMR;
  400814:	687b      	ldr	r3, [r7, #4]
  400816:	6c9b      	ldr	r3, [r3, #72]	; 0x48
}
  400818:	4618      	mov	r0, r3
  40081a:	370c      	adds	r7, #12
  40081c:	46bd      	mov	sp, r7
  40081e:	f85d 7b04 	ldr.w	r7, [sp], #4
  400822:	4770      	bx	lr

00400824 <pio_handler_process>:
 *
 * \param p_pio PIO controller base address.
 * \param ul_id PIO controller ID.
 */
void pio_handler_process(Pio *p_pio, uint32_t ul_id)
{
  400824:	b580      	push	{r7, lr}
  400826:	b084      	sub	sp, #16
  400828:	af00      	add	r7, sp, #0
  40082a:	6078      	str	r0, [r7, #4]
  40082c:	6039      	str	r1, [r7, #0]
	uint32_t status;
	uint32_t i;

	/* Read PIO controller status */
	status = pio_get_interrupt_status(p_pio);
  40082e:	6878      	ldr	r0, [r7, #4]
  400830:	4b26      	ldr	r3, [pc, #152]	; (4008cc <pio_handler_process+0xa8>)
  400832:	4798      	blx	r3
  400834:	60f8      	str	r0, [r7, #12]
	status &= pio_get_interrupt_mask(p_pio);
  400836:	6878      	ldr	r0, [r7, #4]
  400838:	4b25      	ldr	r3, [pc, #148]	; (4008d0 <pio_handler_process+0xac>)
  40083a:	4798      	blx	r3
  40083c:	4602      	mov	r2, r0
  40083e:	68fb      	ldr	r3, [r7, #12]
  400840:	4013      	ands	r3, r2
  400842:	60fb      	str	r3, [r7, #12]

	/* Check pending events */
	if (status != 0) {
  400844:	68fb      	ldr	r3, [r7, #12]
  400846:	2b00      	cmp	r3, #0
  400848:	d03c      	beq.n	4008c4 <pio_handler_process+0xa0>
		/* Find triggering source */
		i = 0;
  40084a:	2300      	movs	r3, #0
  40084c:	60bb      	str	r3, [r7, #8]
		while (status != 0) {
  40084e:	e034      	b.n	4008ba <pio_handler_process+0x96>
			/* Source is configured on the same controller */
			if (gs_interrupt_sources[i].id == ul_id) {
  400850:	4a20      	ldr	r2, [pc, #128]	; (4008d4 <pio_handler_process+0xb0>)
  400852:	68bb      	ldr	r3, [r7, #8]
  400854:	011b      	lsls	r3, r3, #4
  400856:	4413      	add	r3, r2
  400858:	681a      	ldr	r2, [r3, #0]
  40085a:	683b      	ldr	r3, [r7, #0]
  40085c:	429a      	cmp	r2, r3
  40085e:	d126      	bne.n	4008ae <pio_handler_process+0x8a>
				/* Source has PIOs whose statuses have changed */
				if ((status & gs_interrupt_sources[i].mask) != 0) {
  400860:	4a1c      	ldr	r2, [pc, #112]	; (4008d4 <pio_handler_process+0xb0>)
  400862:	68bb      	ldr	r3, [r7, #8]
  400864:	011b      	lsls	r3, r3, #4
  400866:	4413      	add	r3, r2
  400868:	3304      	adds	r3, #4
  40086a:	681a      	ldr	r2, [r3, #0]
  40086c:	68fb      	ldr	r3, [r7, #12]
  40086e:	4013      	ands	r3, r2
  400870:	2b00      	cmp	r3, #0
  400872:	d01c      	beq.n	4008ae <pio_handler_process+0x8a>
					gs_interrupt_sources[i].handler(gs_interrupt_sources[i].id,
  400874:	4a17      	ldr	r2, [pc, #92]	; (4008d4 <pio_handler_process+0xb0>)
  400876:	68bb      	ldr	r3, [r7, #8]
  400878:	011b      	lsls	r3, r3, #4
  40087a:	4413      	add	r3, r2
  40087c:	330c      	adds	r3, #12
  40087e:	681b      	ldr	r3, [r3, #0]
  400880:	4914      	ldr	r1, [pc, #80]	; (4008d4 <pio_handler_process+0xb0>)
  400882:	68ba      	ldr	r2, [r7, #8]
  400884:	0112      	lsls	r2, r2, #4
  400886:	440a      	add	r2, r1
  400888:	6810      	ldr	r0, [r2, #0]
  40088a:	4912      	ldr	r1, [pc, #72]	; (4008d4 <pio_handler_process+0xb0>)
  40088c:	68ba      	ldr	r2, [r7, #8]
  40088e:	0112      	lsls	r2, r2, #4
  400890:	440a      	add	r2, r1
  400892:	3204      	adds	r2, #4
  400894:	6812      	ldr	r2, [r2, #0]
  400896:	4611      	mov	r1, r2
  400898:	4798      	blx	r3
							gs_interrupt_sources[i].mask);
					status &= ~(gs_interrupt_sources[i].mask);
  40089a:	4a0e      	ldr	r2, [pc, #56]	; (4008d4 <pio_handler_process+0xb0>)
  40089c:	68bb      	ldr	r3, [r7, #8]
  40089e:	011b      	lsls	r3, r3, #4
  4008a0:	4413      	add	r3, r2
  4008a2:	3304      	adds	r3, #4
  4008a4:	681b      	ldr	r3, [r3, #0]
  4008a6:	43db      	mvns	r3, r3
  4008a8:	68fa      	ldr	r2, [r7, #12]
  4008aa:	4013      	ands	r3, r2
  4008ac:	60fb      	str	r3, [r7, #12]
				}
			}
			i++;
  4008ae:	68bb      	ldr	r3, [r7, #8]
  4008b0:	3301      	adds	r3, #1
  4008b2:	60bb      	str	r3, [r7, #8]
			if (i >= MAX_INTERRUPT_SOURCES) {
  4008b4:	68bb      	ldr	r3, [r7, #8]
  4008b6:	2b06      	cmp	r3, #6
  4008b8:	d803      	bhi.n	4008c2 <pio_handler_process+0x9e>

	/* Check pending events */
	if (status != 0) {
		/* Find triggering source */
		i = 0;
		while (status != 0) {
  4008ba:	68fb      	ldr	r3, [r7, #12]
  4008bc:	2b00      	cmp	r3, #0
  4008be:	d1c7      	bne.n	400850 <pio_handler_process+0x2c>
		if (pio_capture_handler) {
			pio_capture_handler(p_pio);
		}
	}
#endif
}
  4008c0:	e000      	b.n	4008c4 <pio_handler_process+0xa0>
					status &= ~(gs_interrupt_sources[i].mask);
				}
			}
			i++;
			if (i >= MAX_INTERRUPT_SOURCES) {
				break;
  4008c2:	bf00      	nop
		if (pio_capture_handler) {
			pio_capture_handler(p_pio);
		}
	}
#endif
}
  4008c4:	bf00      	nop
  4008c6:	3710      	adds	r7, #16
  4008c8:	46bd      	mov	sp, r7
  4008ca:	bd80      	pop	{r7, pc}
  4008cc:	004007f5 	.word	0x004007f5
  4008d0:	0040080d 	.word	0x0040080d
  4008d4:	20400860 	.word	0x20400860

004008d8 <PIOA_Handler>:
/**
 * \brief Parallel IO Controller A interrupt handler.
 * Redefined PIOA interrupt handler for NVIC interrupt table.
 */
void PIOA_Handler(void)
{
  4008d8:	b580      	push	{r7, lr}
  4008da:	af00      	add	r7, sp, #0
	pio_handler_process(PIOA, ID_PIOA);
  4008dc:	210a      	movs	r1, #10
  4008de:	4802      	ldr	r0, [pc, #8]	; (4008e8 <PIOA_Handler+0x10>)
  4008e0:	4b02      	ldr	r3, [pc, #8]	; (4008ec <PIOA_Handler+0x14>)
  4008e2:	4798      	blx	r3
}
  4008e4:	bf00      	nop
  4008e6:	bd80      	pop	{r7, pc}
  4008e8:	400e0e00 	.word	0x400e0e00
  4008ec:	00400825 	.word	0x00400825

004008f0 <PIOB_Handler>:
/**
 * \brief Parallel IO Controller B interrupt handler
 * Redefined PIOB interrupt handler for NVIC interrupt table.
 */
void PIOB_Handler(void)
{
  4008f0:	b580      	push	{r7, lr}
  4008f2:	af00      	add	r7, sp, #0
    pio_handler_process(PIOB, ID_PIOB);
  4008f4:	210b      	movs	r1, #11
  4008f6:	4802      	ldr	r0, [pc, #8]	; (400900 <PIOB_Handler+0x10>)
  4008f8:	4b02      	ldr	r3, [pc, #8]	; (400904 <PIOB_Handler+0x14>)
  4008fa:	4798      	blx	r3
}
  4008fc:	bf00      	nop
  4008fe:	bd80      	pop	{r7, pc}
  400900:	400e1000 	.word	0x400e1000
  400904:	00400825 	.word	0x00400825

00400908 <PIOC_Handler>:
/**
 * \brief Parallel IO Controller C interrupt handler.
 * Redefined PIOC interrupt handler for NVIC interrupt table.
 */
void PIOC_Handler(void)
{
  400908:	b580      	push	{r7, lr}
  40090a:	af00      	add	r7, sp, #0
	pio_handler_process(PIOC, ID_PIOC);
  40090c:	210c      	movs	r1, #12
  40090e:	4802      	ldr	r0, [pc, #8]	; (400918 <PIOC_Handler+0x10>)
  400910:	4b02      	ldr	r3, [pc, #8]	; (40091c <PIOC_Handler+0x14>)
  400912:	4798      	blx	r3
}
  400914:	bf00      	nop
  400916:	bd80      	pop	{r7, pc}
  400918:	400e1200 	.word	0x400e1200
  40091c:	00400825 	.word	0x00400825

00400920 <PIOD_Handler>:
/**
 * \brief Parallel IO Controller D interrupt handler.
 * Redefined PIOD interrupt handler for NVIC interrupt table.
 */
void PIOD_Handler(void)
{
  400920:	b580      	push	{r7, lr}
  400922:	af00      	add	r7, sp, #0
	pio_handler_process(PIOD, ID_PIOD);
  400924:	2110      	movs	r1, #16
  400926:	4802      	ldr	r0, [pc, #8]	; (400930 <PIOD_Handler+0x10>)
  400928:	4b02      	ldr	r3, [pc, #8]	; (400934 <PIOD_Handler+0x14>)
  40092a:	4798      	blx	r3
}
  40092c:	bf00      	nop
  40092e:	bd80      	pop	{r7, pc}
  400930:	400e1400 	.word	0x400e1400
  400934:	00400825 	.word	0x00400825

00400938 <PIOE_Handler>:
/**
 * \brief Parallel IO Controller E interrupt handler.
 * Redefined PIOE interrupt handler for NVIC interrupt table.
 */
void PIOE_Handler(void)
{
  400938:	b580      	push	{r7, lr}
  40093a:	af00      	add	r7, sp, #0
	pio_handler_process(PIOE, ID_PIOE);
  40093c:	2111      	movs	r1, #17
  40093e:	4802      	ldr	r0, [pc, #8]	; (400948 <PIOE_Handler+0x10>)
  400940:	4b02      	ldr	r3, [pc, #8]	; (40094c <PIOE_Handler+0x14>)
  400942:	4798      	blx	r3
}
  400944:	bf00      	nop
  400946:	bd80      	pop	{r7, pc}
  400948:	400e1600 	.word	0x400e1600
  40094c:	00400825 	.word	0x00400825

00400950 <pmc_mck_set_division>:
 * \brief Set the division of the MCK.
 *
 * \param ul_div Division value.
 */
void pmc_mck_set_division(uint32_t ul_div)
{
  400950:	b480      	push	{r7}
  400952:	b083      	sub	sp, #12
  400954:	af00      	add	r7, sp, #0
  400956:	6078      	str	r0, [r7, #4]
	switch (ul_div) {
  400958:	687b      	ldr	r3, [r7, #4]
  40095a:	3b01      	subs	r3, #1
  40095c:	2b03      	cmp	r3, #3
  40095e:	d81a      	bhi.n	400996 <pmc_mck_set_division+0x46>
  400960:	a201      	add	r2, pc, #4	; (adr r2, 400968 <pmc_mck_set_division+0x18>)
  400962:	f852 f023 	ldr.w	pc, [r2, r3, lsl #2]
  400966:	bf00      	nop
  400968:	00400979 	.word	0x00400979
  40096c:	0040097f 	.word	0x0040097f
  400970:	00400987 	.word	0x00400987
  400974:	0040098f 	.word	0x0040098f
		case 1:
			ul_div = PMC_MCKR_MDIV_EQ_PCK;
  400978:	2300      	movs	r3, #0
  40097a:	607b      	str	r3, [r7, #4]
			break;
  40097c:	e00e      	b.n	40099c <pmc_mck_set_division+0x4c>
		case 2:
			ul_div = PMC_MCKR_MDIV_PCK_DIV2;
  40097e:	f44f 7380 	mov.w	r3, #256	; 0x100
  400982:	607b      	str	r3, [r7, #4]
			break;
  400984:	e00a      	b.n	40099c <pmc_mck_set_division+0x4c>
		case 3:
			ul_div = PMC_MCKR_MDIV_PCK_DIV3;
  400986:	f44f 7340 	mov.w	r3, #768	; 0x300
  40098a:	607b      	str	r3, [r7, #4]
			break;
  40098c:	e006      	b.n	40099c <pmc_mck_set_division+0x4c>
		case 4:
			ul_div = PMC_MCKR_MDIV_PCK_DIV4;
  40098e:	f44f 7300 	mov.w	r3, #512	; 0x200
  400992:	607b      	str	r3, [r7, #4]
			break;
  400994:	e002      	b.n	40099c <pmc_mck_set_division+0x4c>
		default:
			ul_div = PMC_MCKR_MDIV_EQ_PCK;
  400996:	2300      	movs	r3, #0
  400998:	607b      	str	r3, [r7, #4]
			break;
  40099a:	bf00      	nop
	}
	PMC->PMC_MCKR =
  40099c:	490a      	ldr	r1, [pc, #40]	; (4009c8 <pmc_mck_set_division+0x78>)
			(PMC->PMC_MCKR & (~PMC_MCKR_MDIV_Msk)) | ul_div;
  40099e:	4b0a      	ldr	r3, [pc, #40]	; (4009c8 <pmc_mck_set_division+0x78>)
  4009a0:	6b1b      	ldr	r3, [r3, #48]	; 0x30
  4009a2:	f423 7240 	bic.w	r2, r3, #768	; 0x300
  4009a6:	687b      	ldr	r3, [r7, #4]
  4009a8:	4313      	orrs	r3, r2
			break;
		default:
			ul_div = PMC_MCKR_MDIV_EQ_PCK;
			break;
	}
	PMC->PMC_MCKR =
  4009aa:	630b      	str	r3, [r1, #48]	; 0x30
			(PMC->PMC_MCKR & (~PMC_MCKR_MDIV_Msk)) | ul_div;
	while (!(PMC->PMC_SR & PMC_SR_MCKRDY));
  4009ac:	bf00      	nop
  4009ae:	4b06      	ldr	r3, [pc, #24]	; (4009c8 <pmc_mck_set_division+0x78>)
  4009b0:	6e9b      	ldr	r3, [r3, #104]	; 0x68
  4009b2:	f003 0308 	and.w	r3, r3, #8
  4009b6:	2b00      	cmp	r3, #0
  4009b8:	d0f9      	beq.n	4009ae <pmc_mck_set_division+0x5e>
}
  4009ba:	bf00      	nop
  4009bc:	370c      	adds	r7, #12
  4009be:	46bd      	mov	sp, r7
  4009c0:	f85d 7b04 	ldr.w	r7, [sp], #4
  4009c4:	4770      	bx	lr
  4009c6:	bf00      	nop
  4009c8:	400e0600 	.word	0x400e0600

004009cc <pmc_switch_mck_to_pllack>:
 *
 * \retval 0 Success.
 * \retval 1 Timeout error.
 */
uint32_t pmc_switch_mck_to_pllack(uint32_t ul_pres)
{
  4009cc:	b480      	push	{r7}
  4009ce:	b085      	sub	sp, #20
  4009d0:	af00      	add	r7, sp, #0
  4009d2:	6078      	str	r0, [r7, #4]
	uint32_t ul_timeout;

	PMC->PMC_MCKR = (PMC->PMC_MCKR & (~PMC_MCKR_PRES_Msk)) | ul_pres;
  4009d4:	491d      	ldr	r1, [pc, #116]	; (400a4c <pmc_switch_mck_to_pllack+0x80>)
  4009d6:	4b1d      	ldr	r3, [pc, #116]	; (400a4c <pmc_switch_mck_to_pllack+0x80>)
  4009d8:	6b1b      	ldr	r3, [r3, #48]	; 0x30
  4009da:	f023 0270 	bic.w	r2, r3, #112	; 0x70
  4009de:	687b      	ldr	r3, [r7, #4]
  4009e0:	4313      	orrs	r3, r2
  4009e2:	630b      	str	r3, [r1, #48]	; 0x30
	for (ul_timeout = PMC_TIMEOUT; !(PMC->PMC_SR & PMC_SR_MCKRDY);
  4009e4:	f44f 5380 	mov.w	r3, #4096	; 0x1000
  4009e8:	60fb      	str	r3, [r7, #12]
  4009ea:	e007      	b.n	4009fc <pmc_switch_mck_to_pllack+0x30>
			--ul_timeout) {
		if (ul_timeout == 0) {
  4009ec:	68fb      	ldr	r3, [r7, #12]
  4009ee:	2b00      	cmp	r3, #0
  4009f0:	d101      	bne.n	4009f6 <pmc_switch_mck_to_pllack+0x2a>
			return 1;
  4009f2:	2301      	movs	r3, #1
  4009f4:	e023      	b.n	400a3e <pmc_switch_mck_to_pllack+0x72>
{
	uint32_t ul_timeout;

	PMC->PMC_MCKR = (PMC->PMC_MCKR & (~PMC_MCKR_PRES_Msk)) | ul_pres;
	for (ul_timeout = PMC_TIMEOUT; !(PMC->PMC_SR & PMC_SR_MCKRDY);
			--ul_timeout) {
  4009f6:	68fb      	ldr	r3, [r7, #12]
  4009f8:	3b01      	subs	r3, #1
  4009fa:	60fb      	str	r3, [r7, #12]
uint32_t pmc_switch_mck_to_pllack(uint32_t ul_pres)
{
	uint32_t ul_timeout;

	PMC->PMC_MCKR = (PMC->PMC_MCKR & (~PMC_MCKR_PRES_Msk)) | ul_pres;
	for (ul_timeout = PMC_TIMEOUT; !(PMC->PMC_SR & PMC_SR_MCKRDY);
  4009fc:	4b13      	ldr	r3, [pc, #76]	; (400a4c <pmc_switch_mck_to_pllack+0x80>)
  4009fe:	6e9b      	ldr	r3, [r3, #104]	; 0x68
  400a00:	f003 0308 	and.w	r3, r3, #8
  400a04:	2b00      	cmp	r3, #0
  400a06:	d0f1      	beq.n	4009ec <pmc_switch_mck_to_pllack+0x20>
		if (ul_timeout == 0) {
			return 1;
		}
	}

	PMC->PMC_MCKR = (PMC->PMC_MCKR & (~PMC_MCKR_CSS_Msk)) |
  400a08:	4a10      	ldr	r2, [pc, #64]	; (400a4c <pmc_switch_mck_to_pllack+0x80>)
  400a0a:	4b10      	ldr	r3, [pc, #64]	; (400a4c <pmc_switch_mck_to_pllack+0x80>)
  400a0c:	6b1b      	ldr	r3, [r3, #48]	; 0x30
  400a0e:	f023 0303 	bic.w	r3, r3, #3
  400a12:	f043 0302 	orr.w	r3, r3, #2
  400a16:	6313      	str	r3, [r2, #48]	; 0x30
			PMC_MCKR_CSS_PLLA_CLK;

	for (ul_timeout = PMC_TIMEOUT; !(PMC->PMC_SR & PMC_SR_MCKRDY);
  400a18:	f44f 5380 	mov.w	r3, #4096	; 0x1000
  400a1c:	60fb      	str	r3, [r7, #12]
  400a1e:	e007      	b.n	400a30 <pmc_switch_mck_to_pllack+0x64>
			--ul_timeout) {
		if (ul_timeout == 0) {
  400a20:	68fb      	ldr	r3, [r7, #12]
  400a22:	2b00      	cmp	r3, #0
  400a24:	d101      	bne.n	400a2a <pmc_switch_mck_to_pllack+0x5e>
			return 1;
  400a26:	2301      	movs	r3, #1
  400a28:	e009      	b.n	400a3e <pmc_switch_mck_to_pllack+0x72>

	PMC->PMC_MCKR = (PMC->PMC_MCKR & (~PMC_MCKR_CSS_Msk)) |
			PMC_MCKR_CSS_PLLA_CLK;

	for (ul_timeout = PMC_TIMEOUT; !(PMC->PMC_SR & PMC_SR_MCKRDY);
			--ul_timeout) {
  400a2a:	68fb      	ldr	r3, [r7, #12]
  400a2c:	3b01      	subs	r3, #1
  400a2e:	60fb      	str	r3, [r7, #12]
	}

	PMC->PMC_MCKR = (PMC->PMC_MCKR & (~PMC_MCKR_CSS_Msk)) |
			PMC_MCKR_CSS_PLLA_CLK;

	for (ul_timeout = PMC_TIMEOUT; !(PMC->PMC_SR & PMC_SR_MCKRDY);
  400a30:	4b06      	ldr	r3, [pc, #24]	; (400a4c <pmc_switch_mck_to_pllack+0x80>)
  400a32:	6e9b      	ldr	r3, [r3, #104]	; 0x68
  400a34:	f003 0308 	and.w	r3, r3, #8
  400a38:	2b00      	cmp	r3, #0
  400a3a:	d0f1      	beq.n	400a20 <pmc_switch_mck_to_pllack+0x54>
		if (ul_timeout == 0) {
			return 1;
		}
	}

	return 0;
  400a3c:	2300      	movs	r3, #0
}
  400a3e:	4618      	mov	r0, r3
  400a40:	3714      	adds	r7, #20
  400a42:	46bd      	mov	sp, r7
  400a44:	f85d 7b04 	ldr.w	r7, [sp], #4
  400a48:	4770      	bx	lr
  400a4a:	bf00      	nop
  400a4c:	400e0600 	.word	0x400e0600

00400a50 <pmc_switch_sclk_to_32kxtal>:
 *       VDDIO power supply.
 *
 * \param ul_bypass 0 for Xtal, 1 for bypass.
 */
void pmc_switch_sclk_to_32kxtal(uint32_t ul_bypass)
{
  400a50:	b480      	push	{r7}
  400a52:	b083      	sub	sp, #12
  400a54:	af00      	add	r7, sp, #0
  400a56:	6078      	str	r0, [r7, #4]
	/* Set Bypass mode if required */
	if (ul_bypass == 1) {
  400a58:	687b      	ldr	r3, [r7, #4]
  400a5a:	2b01      	cmp	r3, #1
  400a5c:	d105      	bne.n	400a6a <pmc_switch_sclk_to_32kxtal+0x1a>
		SUPC->SUPC_MR |= SUPC_MR_KEY_PASSWD |
  400a5e:	4907      	ldr	r1, [pc, #28]	; (400a7c <pmc_switch_sclk_to_32kxtal+0x2c>)
  400a60:	4b06      	ldr	r3, [pc, #24]	; (400a7c <pmc_switch_sclk_to_32kxtal+0x2c>)
  400a62:	689a      	ldr	r2, [r3, #8]
  400a64:	4b06      	ldr	r3, [pc, #24]	; (400a80 <pmc_switch_sclk_to_32kxtal+0x30>)
  400a66:	4313      	orrs	r3, r2
  400a68:	608b      	str	r3, [r1, #8]
			SUPC_MR_OSCBYPASS;
	}

	SUPC->SUPC_CR = SUPC_CR_KEY_PASSWD | SUPC_CR_XTALSEL;
  400a6a:	4b04      	ldr	r3, [pc, #16]	; (400a7c <pmc_switch_sclk_to_32kxtal+0x2c>)
  400a6c:	4a05      	ldr	r2, [pc, #20]	; (400a84 <pmc_switch_sclk_to_32kxtal+0x34>)
  400a6e:	601a      	str	r2, [r3, #0]
}
  400a70:	bf00      	nop
  400a72:	370c      	adds	r7, #12
  400a74:	46bd      	mov	sp, r7
  400a76:	f85d 7b04 	ldr.w	r7, [sp], #4
  400a7a:	4770      	bx	lr
  400a7c:	400e1810 	.word	0x400e1810
  400a80:	a5100000 	.word	0xa5100000
  400a84:	a5000008 	.word	0xa5000008

00400a88 <pmc_osc_is_ready_32kxtal>:
 *
 * \retval 1 External 32k Xtal is ready.
 * \retval 0 External 32k Xtal is not ready.
 */
uint32_t pmc_osc_is_ready_32kxtal(void)
{
  400a88:	b480      	push	{r7}
  400a8a:	af00      	add	r7, sp, #0
	return ((SUPC->SUPC_SR & SUPC_SR_OSCSEL)
  400a8c:	4b09      	ldr	r3, [pc, #36]	; (400ab4 <pmc_osc_is_ready_32kxtal+0x2c>)
  400a8e:	695b      	ldr	r3, [r3, #20]
  400a90:	f003 0380 	and.w	r3, r3, #128	; 0x80
			&& (PMC->PMC_SR & PMC_SR_OSCSELS));
  400a94:	2b00      	cmp	r3, #0
  400a96:	d007      	beq.n	400aa8 <pmc_osc_is_ready_32kxtal+0x20>
  400a98:	4b07      	ldr	r3, [pc, #28]	; (400ab8 <pmc_osc_is_ready_32kxtal+0x30>)
  400a9a:	6e9b      	ldr	r3, [r3, #104]	; 0x68
  400a9c:	f003 0380 	and.w	r3, r3, #128	; 0x80
  400aa0:	2b00      	cmp	r3, #0
  400aa2:	d001      	beq.n	400aa8 <pmc_osc_is_ready_32kxtal+0x20>
  400aa4:	2301      	movs	r3, #1
  400aa6:	e000      	b.n	400aaa <pmc_osc_is_ready_32kxtal+0x22>
  400aa8:	2300      	movs	r3, #0
}
  400aaa:	4618      	mov	r0, r3
  400aac:	46bd      	mov	sp, r7
  400aae:	f85d 7b04 	ldr.w	r7, [sp], #4
  400ab2:	4770      	bx	lr
  400ab4:	400e1810 	.word	0x400e1810
  400ab8:	400e0600 	.word	0x400e0600

00400abc <pmc_switch_mainck_to_fastrc>:
 * \retval 0 Success.
 * \retval 1 Timeout error.
 * \retval 2 Invalid frequency.
 */
void pmc_switch_mainck_to_fastrc(uint32_t ul_moscrcf)
{
  400abc:	b480      	push	{r7}
  400abe:	b083      	sub	sp, #12
  400ac0:	af00      	add	r7, sp, #0
  400ac2:	6078      	str	r0, [r7, #4]
	/* Enable Fast RC oscillator but DO NOT switch to RC now */
	PMC->CKGR_MOR |= (CKGR_MOR_KEY_PASSWD | CKGR_MOR_MOSCRCEN);
  400ac4:	4915      	ldr	r1, [pc, #84]	; (400b1c <pmc_switch_mainck_to_fastrc+0x60>)
  400ac6:	4b15      	ldr	r3, [pc, #84]	; (400b1c <pmc_switch_mainck_to_fastrc+0x60>)
  400ac8:	6a1a      	ldr	r2, [r3, #32]
  400aca:	4b15      	ldr	r3, [pc, #84]	; (400b20 <pmc_switch_mainck_to_fastrc+0x64>)
  400acc:	4313      	orrs	r3, r2
  400ace:	620b      	str	r3, [r1, #32]

	/* Wait the Fast RC to stabilize */
	while (!(PMC->PMC_SR & PMC_SR_MOSCRCS));
  400ad0:	bf00      	nop
  400ad2:	4b12      	ldr	r3, [pc, #72]	; (400b1c <pmc_switch_mainck_to_fastrc+0x60>)
  400ad4:	6e9b      	ldr	r3, [r3, #104]	; 0x68
  400ad6:	f403 3300 	and.w	r3, r3, #131072	; 0x20000
  400ada:	2b00      	cmp	r3, #0
  400adc:	d0f9      	beq.n	400ad2 <pmc_switch_mainck_to_fastrc+0x16>

	/* Change Fast RC oscillator frequency */
	PMC->CKGR_MOR = (PMC->CKGR_MOR & ~CKGR_MOR_MOSCRCF_Msk) |
  400ade:	490f      	ldr	r1, [pc, #60]	; (400b1c <pmc_switch_mainck_to_fastrc+0x60>)
  400ae0:	4b0e      	ldr	r3, [pc, #56]	; (400b1c <pmc_switch_mainck_to_fastrc+0x60>)
  400ae2:	6a1a      	ldr	r2, [r3, #32]
  400ae4:	4b0f      	ldr	r3, [pc, #60]	; (400b24 <pmc_switch_mainck_to_fastrc+0x68>)
  400ae6:	4013      	ands	r3, r2
			CKGR_MOR_KEY_PASSWD | ul_moscrcf;
  400ae8:	687a      	ldr	r2, [r7, #4]
  400aea:	4313      	orrs	r3, r2
  400aec:	f443 135c 	orr.w	r3, r3, #3604480	; 0x370000

	/* Wait the Fast RC to stabilize */
	while (!(PMC->PMC_SR & PMC_SR_MOSCRCS));

	/* Change Fast RC oscillator frequency */
	PMC->CKGR_MOR = (PMC->CKGR_MOR & ~CKGR_MOR_MOSCRCF_Msk) |
  400af0:	620b      	str	r3, [r1, #32]
			CKGR_MOR_KEY_PASSWD | ul_moscrcf;

	/* Wait the Fast RC to stabilize */
	while (!(PMC->PMC_SR & PMC_SR_MOSCRCS));
  400af2:	bf00      	nop
  400af4:	4b09      	ldr	r3, [pc, #36]	; (400b1c <pmc_switch_mainck_to_fastrc+0x60>)
  400af6:	6e9b      	ldr	r3, [r3, #104]	; 0x68
  400af8:	f403 3300 	and.w	r3, r3, #131072	; 0x20000
  400afc:	2b00      	cmp	r3, #0
  400afe:	d0f9      	beq.n	400af4 <pmc_switch_mainck_to_fastrc+0x38>

	/* Switch to Fast RC */
	PMC->CKGR_MOR = (PMC->CKGR_MOR & ~CKGR_MOR_MOSCSEL) |
  400b00:	4906      	ldr	r1, [pc, #24]	; (400b1c <pmc_switch_mainck_to_fastrc+0x60>)
  400b02:	4b06      	ldr	r3, [pc, #24]	; (400b1c <pmc_switch_mainck_to_fastrc+0x60>)
  400b04:	6a1a      	ldr	r2, [r3, #32]
  400b06:	4b08      	ldr	r3, [pc, #32]	; (400b28 <pmc_switch_mainck_to_fastrc+0x6c>)
  400b08:	4013      	ands	r3, r2
  400b0a:	f443 135c 	orr.w	r3, r3, #3604480	; 0x370000
  400b0e:	620b      	str	r3, [r1, #32]
			CKGR_MOR_KEY_PASSWD;
}
  400b10:	bf00      	nop
  400b12:	370c      	adds	r7, #12
  400b14:	46bd      	mov	sp, r7
  400b16:	f85d 7b04 	ldr.w	r7, [sp], #4
  400b1a:	4770      	bx	lr
  400b1c:	400e0600 	.word	0x400e0600
  400b20:	00370008 	.word	0x00370008
  400b24:	ffc8ff8f 	.word	0xffc8ff8f
  400b28:	fec8ffff 	.word	0xfec8ffff

00400b2c <pmc_switch_mainck_to_xtal>:
 * \retval 0 Success.
 * \retval 1 Timeout error.
 */
void pmc_switch_mainck_to_xtal(uint32_t ul_bypass,
		uint32_t ul_xtal_startup_time)
{
  400b2c:	b480      	push	{r7}
  400b2e:	b083      	sub	sp, #12
  400b30:	af00      	add	r7, sp, #0
  400b32:	6078      	str	r0, [r7, #4]
  400b34:	6039      	str	r1, [r7, #0]
	/* Enable Main Xtal oscillator */
	if (ul_bypass) {
  400b36:	687b      	ldr	r3, [r7, #4]
  400b38:	2b00      	cmp	r3, #0
  400b3a:	d008      	beq.n	400b4e <pmc_switch_mainck_to_xtal+0x22>
		PMC->CKGR_MOR = (PMC->CKGR_MOR & ~CKGR_MOR_MOSCXTEN) |
  400b3c:	4913      	ldr	r1, [pc, #76]	; (400b8c <pmc_switch_mainck_to_xtal+0x60>)
  400b3e:	4b13      	ldr	r3, [pc, #76]	; (400b8c <pmc_switch_mainck_to_xtal+0x60>)
  400b40:	6a1b      	ldr	r3, [r3, #32]
				CKGR_MOR_KEY_PASSWD | CKGR_MOR_MOSCXTBY |
  400b42:	4a13      	ldr	r2, [pc, #76]	; (400b90 <pmc_switch_mainck_to_xtal+0x64>)
  400b44:	401a      	ands	r2, r3
  400b46:	4b13      	ldr	r3, [pc, #76]	; (400b94 <pmc_switch_mainck_to_xtal+0x68>)
  400b48:	4313      	orrs	r3, r2
void pmc_switch_mainck_to_xtal(uint32_t ul_bypass,
		uint32_t ul_xtal_startup_time)
{
	/* Enable Main Xtal oscillator */
	if (ul_bypass) {
		PMC->CKGR_MOR = (PMC->CKGR_MOR & ~CKGR_MOR_MOSCXTEN) |
  400b4a:	620b      	str	r3, [r1, #32]
		/* Wait the Xtal to stabilize */
		while (!(PMC->PMC_SR & PMC_SR_MOSCXTS));

		PMC->CKGR_MOR |= CKGR_MOR_KEY_PASSWD | CKGR_MOR_MOSCSEL;
	}
}
  400b4c:	e018      	b.n	400b80 <pmc_switch_mainck_to_xtal+0x54>
	if (ul_bypass) {
		PMC->CKGR_MOR = (PMC->CKGR_MOR & ~CKGR_MOR_MOSCXTEN) |
				CKGR_MOR_KEY_PASSWD | CKGR_MOR_MOSCXTBY |
				CKGR_MOR_MOSCSEL;
	} else {
		PMC->CKGR_MOR = (PMC->CKGR_MOR & ~CKGR_MOR_MOSCXTBY) |
  400b4e:	490f      	ldr	r1, [pc, #60]	; (400b8c <pmc_switch_mainck_to_xtal+0x60>)
  400b50:	4b0e      	ldr	r3, [pc, #56]	; (400b8c <pmc_switch_mainck_to_xtal+0x60>)
  400b52:	6a1a      	ldr	r2, [r3, #32]
				CKGR_MOR_KEY_PASSWD | CKGR_MOR_MOSCXTEN |
  400b54:	4b10      	ldr	r3, [pc, #64]	; (400b98 <pmc_switch_mainck_to_xtal+0x6c>)
  400b56:	4013      	ands	r3, r2
				CKGR_MOR_MOSCXTST(ul_xtal_startup_time);
  400b58:	683a      	ldr	r2, [r7, #0]
  400b5a:	0212      	lsls	r2, r2, #8
  400b5c:	b292      	uxth	r2, r2
		PMC->CKGR_MOR = (PMC->CKGR_MOR & ~CKGR_MOR_MOSCXTEN) |
				CKGR_MOR_KEY_PASSWD | CKGR_MOR_MOSCXTBY |
				CKGR_MOR_MOSCSEL;
	} else {
		PMC->CKGR_MOR = (PMC->CKGR_MOR & ~CKGR_MOR_MOSCXTBY) |
				CKGR_MOR_KEY_PASSWD | CKGR_MOR_MOSCXTEN |
  400b5e:	431a      	orrs	r2, r3
  400b60:	4b0e      	ldr	r3, [pc, #56]	; (400b9c <pmc_switch_mainck_to_xtal+0x70>)
  400b62:	4313      	orrs	r3, r2
	if (ul_bypass) {
		PMC->CKGR_MOR = (PMC->CKGR_MOR & ~CKGR_MOR_MOSCXTEN) |
				CKGR_MOR_KEY_PASSWD | CKGR_MOR_MOSCXTBY |
				CKGR_MOR_MOSCSEL;
	} else {
		PMC->CKGR_MOR = (PMC->CKGR_MOR & ~CKGR_MOR_MOSCXTBY) |
  400b64:	620b      	str	r3, [r1, #32]
				CKGR_MOR_KEY_PASSWD | CKGR_MOR_MOSCXTEN |
				CKGR_MOR_MOSCXTST(ul_xtal_startup_time);
		/* Wait the Xtal to stabilize */
		while (!(PMC->PMC_SR & PMC_SR_MOSCXTS));
  400b66:	bf00      	nop
  400b68:	4b08      	ldr	r3, [pc, #32]	; (400b8c <pmc_switch_mainck_to_xtal+0x60>)
  400b6a:	6e9b      	ldr	r3, [r3, #104]	; 0x68
  400b6c:	f003 0301 	and.w	r3, r3, #1
  400b70:	2b00      	cmp	r3, #0
  400b72:	d0f9      	beq.n	400b68 <pmc_switch_mainck_to_xtal+0x3c>

		PMC->CKGR_MOR |= CKGR_MOR_KEY_PASSWD | CKGR_MOR_MOSCSEL;
  400b74:	4905      	ldr	r1, [pc, #20]	; (400b8c <pmc_switch_mainck_to_xtal+0x60>)
  400b76:	4b05      	ldr	r3, [pc, #20]	; (400b8c <pmc_switch_mainck_to_xtal+0x60>)
  400b78:	6a1a      	ldr	r2, [r3, #32]
  400b7a:	4b09      	ldr	r3, [pc, #36]	; (400ba0 <pmc_switch_mainck_to_xtal+0x74>)
  400b7c:	4313      	orrs	r3, r2
  400b7e:	620b      	str	r3, [r1, #32]
	}
}
  400b80:	bf00      	nop
  400b82:	370c      	adds	r7, #12
  400b84:	46bd      	mov	sp, r7
  400b86:	f85d 7b04 	ldr.w	r7, [sp], #4
  400b8a:	4770      	bx	lr
  400b8c:	400e0600 	.word	0x400e0600
  400b90:	fec8fffc 	.word	0xfec8fffc
  400b94:	01370002 	.word	0x01370002
  400b98:	ffc8fffc 	.word	0xffc8fffc
  400b9c:	00370001 	.word	0x00370001
  400ba0:	01370000 	.word	0x01370000

00400ba4 <pmc_osc_is_ready_mainck>:
 *
 * \retval 1 Xtal is ready.
 * \retval 0 Xtal is not ready.
 */
uint32_t pmc_osc_is_ready_mainck(void)
{
  400ba4:	b480      	push	{r7}
  400ba6:	af00      	add	r7, sp, #0
	return PMC->PMC_SR & PMC_SR_MOSCSELS;
  400ba8:	4b04      	ldr	r3, [pc, #16]	; (400bbc <pmc_osc_is_ready_mainck+0x18>)
  400baa:	6e9b      	ldr	r3, [r3, #104]	; 0x68
  400bac:	f403 3380 	and.w	r3, r3, #65536	; 0x10000
}
  400bb0:	4618      	mov	r0, r3
  400bb2:	46bd      	mov	sp, r7
  400bb4:	f85d 7b04 	ldr.w	r7, [sp], #4
  400bb8:	4770      	bx	lr
  400bba:	bf00      	nop
  400bbc:	400e0600 	.word	0x400e0600

00400bc0 <pmc_disable_pllack>:

/**
 * \brief Disable PLLA clock.
 */
void pmc_disable_pllack(void)
{
  400bc0:	b480      	push	{r7}
  400bc2:	af00      	add	r7, sp, #0
#if (SAM4C || SAM4CM || SAM4CP || SAMG)
	PMC->CKGR_PLLAR = CKGR_PLLAR_MULA(0);
#else
	PMC->CKGR_PLLAR = CKGR_PLLAR_ONE | CKGR_PLLAR_MULA(0);
  400bc4:	4b04      	ldr	r3, [pc, #16]	; (400bd8 <pmc_disable_pllack+0x18>)
  400bc6:	f04f 5200 	mov.w	r2, #536870912	; 0x20000000
  400bca:	629a      	str	r2, [r3, #40]	; 0x28
#endif
}
  400bcc:	bf00      	nop
  400bce:	46bd      	mov	sp, r7
  400bd0:	f85d 7b04 	ldr.w	r7, [sp], #4
  400bd4:	4770      	bx	lr
  400bd6:	bf00      	nop
  400bd8:	400e0600 	.word	0x400e0600

00400bdc <pmc_is_locked_pllack>:
 *
 * \retval 0 Not locked.
 * \retval 1 Locked.
 */
uint32_t pmc_is_locked_pllack(void)
{
  400bdc:	b480      	push	{r7}
  400bde:	af00      	add	r7, sp, #0
	return (PMC->PMC_SR & PMC_SR_LOCKA);
  400be0:	4b04      	ldr	r3, [pc, #16]	; (400bf4 <pmc_is_locked_pllack+0x18>)
  400be2:	6e9b      	ldr	r3, [r3, #104]	; 0x68
  400be4:	f003 0302 	and.w	r3, r3, #2
}
  400be8:	4618      	mov	r0, r3
  400bea:	46bd      	mov	sp, r7
  400bec:	f85d 7b04 	ldr.w	r7, [sp], #4
  400bf0:	4770      	bx	lr
  400bf2:	bf00      	nop
  400bf4:	400e0600 	.word	0x400e0600

00400bf8 <pmc_is_locked_upll>:
 *
 * \retval 0 Not locked.
 * \retval 1 Locked.
 */
uint32_t pmc_is_locked_upll(void)
{
  400bf8:	b480      	push	{r7}
  400bfa:	af00      	add	r7, sp, #0
	return (PMC->PMC_SR & PMC_SR_LOCKU);
  400bfc:	4b04      	ldr	r3, [pc, #16]	; (400c10 <pmc_is_locked_upll+0x18>)
  400bfe:	6e9b      	ldr	r3, [r3, #104]	; 0x68
  400c00:	f003 0340 	and.w	r3, r3, #64	; 0x40
}
  400c04:	4618      	mov	r0, r3
  400c06:	46bd      	mov	sp, r7
  400c08:	f85d 7b04 	ldr.w	r7, [sp], #4
  400c0c:	4770      	bx	lr
  400c0e:	bf00      	nop
  400c10:	400e0600 	.word	0x400e0600

00400c14 <pmc_enable_periph_clk>:
 *
 * \retval 0 Success.
 * \retval 1 Invalid parameter.
 */
uint32_t pmc_enable_periph_clk(uint32_t ul_id)
{
  400c14:	b480      	push	{r7}
  400c16:	b083      	sub	sp, #12
  400c18:	af00      	add	r7, sp, #0
  400c1a:	6078      	str	r0, [r7, #4]
	if (ul_id > MAX_PERIPH_ID) {
  400c1c:	687b      	ldr	r3, [r7, #4]
  400c1e:	2b3f      	cmp	r3, #63	; 0x3f
  400c20:	d901      	bls.n	400c26 <pmc_enable_periph_clk+0x12>
		return 1;
  400c22:	2301      	movs	r3, #1
  400c24:	e02f      	b.n	400c86 <pmc_enable_periph_clk+0x72>
	}

	if (ul_id < 32) {
  400c26:	687b      	ldr	r3, [r7, #4]
  400c28:	2b1f      	cmp	r3, #31
  400c2a:	d813      	bhi.n	400c54 <pmc_enable_periph_clk+0x40>
		if ((PMC->PMC_PCSR0 & (1u << ul_id)) != (1u << ul_id)) {
  400c2c:	4b19      	ldr	r3, [pc, #100]	; (400c94 <pmc_enable_periph_clk+0x80>)
  400c2e:	699a      	ldr	r2, [r3, #24]
  400c30:	2101      	movs	r1, #1
  400c32:	687b      	ldr	r3, [r7, #4]
  400c34:	fa01 f303 	lsl.w	r3, r1, r3
  400c38:	401a      	ands	r2, r3
  400c3a:	2101      	movs	r1, #1
  400c3c:	687b      	ldr	r3, [r7, #4]
  400c3e:	fa01 f303 	lsl.w	r3, r1, r3
  400c42:	429a      	cmp	r2, r3
  400c44:	d01e      	beq.n	400c84 <pmc_enable_periph_clk+0x70>
			PMC->PMC_PCER0 = 1 << ul_id;
  400c46:	4a13      	ldr	r2, [pc, #76]	; (400c94 <pmc_enable_periph_clk+0x80>)
  400c48:	2101      	movs	r1, #1
  400c4a:	687b      	ldr	r3, [r7, #4]
  400c4c:	fa01 f303 	lsl.w	r3, r1, r3
  400c50:	6113      	str	r3, [r2, #16]
  400c52:	e017      	b.n	400c84 <pmc_enable_periph_clk+0x70>
		}
#if (SAM3S || SAM3XA || SAM4S || SAM4E || SAM4C || SAM4CM || SAM4CP || SAMG55 || SAMV71 || SAMV70 || SAME70 || SAMS70)
	} else {
		ul_id -= 32;
  400c54:	687b      	ldr	r3, [r7, #4]
  400c56:	3b20      	subs	r3, #32
  400c58:	607b      	str	r3, [r7, #4]
		if ((PMC->PMC_PCSR1 & (1u << ul_id)) != (1u << ul_id)) {
  400c5a:	4b0e      	ldr	r3, [pc, #56]	; (400c94 <pmc_enable_periph_clk+0x80>)
  400c5c:	f8d3 2108 	ldr.w	r2, [r3, #264]	; 0x108
  400c60:	2101      	movs	r1, #1
  400c62:	687b      	ldr	r3, [r7, #4]
  400c64:	fa01 f303 	lsl.w	r3, r1, r3
  400c68:	401a      	ands	r2, r3
  400c6a:	2101      	movs	r1, #1
  400c6c:	687b      	ldr	r3, [r7, #4]
  400c6e:	fa01 f303 	lsl.w	r3, r1, r3
  400c72:	429a      	cmp	r2, r3
  400c74:	d006      	beq.n	400c84 <pmc_enable_periph_clk+0x70>
			PMC->PMC_PCER1 = 1 << ul_id;
  400c76:	4a07      	ldr	r2, [pc, #28]	; (400c94 <pmc_enable_periph_clk+0x80>)
  400c78:	2101      	movs	r1, #1
  400c7a:	687b      	ldr	r3, [r7, #4]
  400c7c:	fa01 f303 	lsl.w	r3, r1, r3
  400c80:	f8c2 3100 	str.w	r3, [r2, #256]	; 0x100
		}
#endif
	}

	return 0;
  400c84:	2300      	movs	r3, #0
}
  400c86:	4618      	mov	r0, r3
  400c88:	370c      	adds	r7, #12
  400c8a:	46bd      	mov	sp, r7
  400c8c:	f85d 7b04 	ldr.w	r7, [sp], #4
  400c90:	4770      	bx	lr
  400c92:	bf00      	nop
  400c94:	400e0600 	.word	0x400e0600

00400c98 <pmc_enable_sleepmode>:
 * \param uc_type 0 for wait for interrupt, 1 for wait for event.
 * \note For SAM4S, SAM4C, SAM4CM, SAM4CP, SAMV71 and SAM4E series,
 * since only WFI is effective, uc_type = 1 will be treated as uc_type = 0.
 */
void pmc_enable_sleepmode(uint8_t uc_type)
{
  400c98:	b480      	push	{r7}
  400c9a:	b083      	sub	sp, #12
  400c9c:	af00      	add	r7, sp, #0
  400c9e:	4603      	mov	r3, r0
  400ca0:	71fb      	strb	r3, [r7, #7]
#if !(SAM4S || SAM4E || SAM4N || SAM4C || SAM4CM || SAM4CP || SAMV71 || SAMV70 || SAME70 || SAMS70)
	PMC->PMC_FSMR &= (uint32_t) ~ PMC_FSMR_LPM; // Enter Sleep mode
#endif
	SCB->SCR &= (uint32_t) ~ SCB_SCR_SLEEPDEEP_Msk; // Deep sleep
  400ca2:	4a06      	ldr	r2, [pc, #24]	; (400cbc <pmc_enable_sleepmode+0x24>)
  400ca4:	4b05      	ldr	r3, [pc, #20]	; (400cbc <pmc_enable_sleepmode+0x24>)
  400ca6:	691b      	ldr	r3, [r3, #16]
  400ca8:	f023 0304 	bic.w	r3, r3, #4
  400cac:	6113      	str	r3, [r2, #16]
    Wait For Interrupt is a hint instruction that suspends execution
    until one of a number of events occurs.
 */
__attribute__( ( always_inline ) ) __STATIC_INLINE void __WFI(void)
{
  __ASM volatile ("wfi");
  400cae:	bf30      	wfi
		__WFI();
	} else {
		__WFE();
	}
#endif
}
  400cb0:	bf00      	nop
  400cb2:	370c      	adds	r7, #12
  400cb4:	46bd      	mov	sp, r7
  400cb6:	f85d 7b04 	ldr.w	r7, [sp], #4
  400cba:	4770      	bx	lr
  400cbc:	e000ed00 	.word	0xe000ed00

00400cc0 <rtc_get_status>:
 * \param p_rtc Pointer to an RTC instance.
 *
 * \return Status of the RTC.
 */
uint32_t rtc_get_status(Rtc *p_rtc)
{
  400cc0:	b480      	push	{r7}
  400cc2:	b083      	sub	sp, #12
  400cc4:	af00      	add	r7, sp, #0
  400cc6:	6078      	str	r0, [r7, #4]
	return (p_rtc->RTC_SR);
  400cc8:	687b      	ldr	r3, [r7, #4]
  400cca:	699b      	ldr	r3, [r3, #24]
}
  400ccc:	4618      	mov	r0, r3
  400cce:	370c      	adds	r7, #12
  400cd0:	46bd      	mov	sp, r7
  400cd2:	f85d 7b04 	ldr.w	r7, [sp], #4
  400cd6:	4770      	bx	lr

00400cd8 <rtc_clear_status>:
 *
 * \param p_rtc Pointer to an RTC instance.
 * \param ul_clear Some flag bits which will be cleared.
 */
void rtc_clear_status(Rtc *p_rtc, uint32_t ul_clear)
{
  400cd8:	b480      	push	{r7}
  400cda:	b083      	sub	sp, #12
  400cdc:	af00      	add	r7, sp, #0
  400cde:	6078      	str	r0, [r7, #4]
  400ce0:	6039      	str	r1, [r7, #0]
	p_rtc->RTC_SCCR = ul_clear;
  400ce2:	687b      	ldr	r3, [r7, #4]
  400ce4:	683a      	ldr	r2, [r7, #0]
  400ce6:	61da      	str	r2, [r3, #28]
}
  400ce8:	bf00      	nop
  400cea:	370c      	adds	r7, #12
  400cec:	46bd      	mov	sp, r7
  400cee:	f85d 7b04 	ldr.w	r7, [sp], #4
  400cf2:	4770      	bx	lr

00400cf4 <tc_init>:
 */
void tc_init(
		Tc *p_tc,
		uint32_t ul_channel,
		uint32_t ul_mode)
{
  400cf4:	b480      	push	{r7}
  400cf6:	b087      	sub	sp, #28
  400cf8:	af00      	add	r7, sp, #0
  400cfa:	60f8      	str	r0, [r7, #12]
  400cfc:	60b9      	str	r1, [r7, #8]
  400cfe:	607a      	str	r2, [r7, #4]

	/* Validate inputs. */
	Assert(p_tc);
	Assert(ul_channel <
			(sizeof(p_tc->TC_CHANNEL) / sizeof(p_tc->TC_CHANNEL[0])));
	tc_channel = p_tc->TC_CHANNEL + ul_channel;
  400d00:	68fa      	ldr	r2, [r7, #12]
  400d02:	68bb      	ldr	r3, [r7, #8]
  400d04:	019b      	lsls	r3, r3, #6
  400d06:	4413      	add	r3, r2
  400d08:	617b      	str	r3, [r7, #20]

	/*  Disable TC clock. */
	tc_channel->TC_CCR = TC_CCR_CLKDIS;
  400d0a:	697b      	ldr	r3, [r7, #20]
  400d0c:	2202      	movs	r2, #2
  400d0e:	601a      	str	r2, [r3, #0]

	/*  Disable interrupts. */
	tc_channel->TC_IDR = 0xFFFFFFFF;
  400d10:	697b      	ldr	r3, [r7, #20]
  400d12:	f04f 32ff 	mov.w	r2, #4294967295
  400d16:	629a      	str	r2, [r3, #40]	; 0x28

	/*  Clear status register. */
	tc_channel->TC_SR;
  400d18:	697b      	ldr	r3, [r7, #20]
  400d1a:	6a1b      	ldr	r3, [r3, #32]

	/*  Set mode. */
	tc_channel->TC_CMR = ul_mode;
  400d1c:	697b      	ldr	r3, [r7, #20]
  400d1e:	687a      	ldr	r2, [r7, #4]
  400d20:	605a      	str	r2, [r3, #4]
}
  400d22:	bf00      	nop
  400d24:	371c      	adds	r7, #28
  400d26:	46bd      	mov	sp, r7
  400d28:	f85d 7b04 	ldr.w	r7, [sp], #4
  400d2c:	4770      	bx	lr
  400d2e:	bf00      	nop

00400d30 <tc_start>:
 * \param[in] ul_channel Channel to configure
 */
void tc_start(
		Tc *p_tc,
		uint32_t ul_channel)
{
  400d30:	b480      	push	{r7}
  400d32:	b083      	sub	sp, #12
  400d34:	af00      	add	r7, sp, #0
  400d36:	6078      	str	r0, [r7, #4]
  400d38:	6039      	str	r1, [r7, #0]
	/* Validate inputs. */
	Assert(p_tc);
	Assert(ul_channel <
			(sizeof(p_tc->TC_CHANNEL) / sizeof(p_tc->TC_CHANNEL[0])));

	p_tc->TC_CHANNEL[ul_channel].TC_CCR = TC_CCR_CLKEN | TC_CCR_SWTRG;
  400d3a:	687a      	ldr	r2, [r7, #4]
  400d3c:	683b      	ldr	r3, [r7, #0]
  400d3e:	019b      	lsls	r3, r3, #6
  400d40:	4413      	add	r3, r2
  400d42:	2205      	movs	r2, #5
  400d44:	601a      	str	r2, [r3, #0]
}
  400d46:	bf00      	nop
  400d48:	370c      	adds	r7, #12
  400d4a:	46bd      	mov	sp, r7
  400d4c:	f85d 7b04 	ldr.w	r7, [sp], #4
  400d50:	4770      	bx	lr
  400d52:	bf00      	nop

00400d54 <tc_write_ra>:
 */
void tc_write_ra(
		Tc *p_tc,
		uint32_t ul_channel,
		uint32_t ul_value)
{
  400d54:	b480      	push	{r7}
  400d56:	b085      	sub	sp, #20
  400d58:	af00      	add	r7, sp, #0
  400d5a:	60f8      	str	r0, [r7, #12]
  400d5c:	60b9      	str	r1, [r7, #8]
  400d5e:	607a      	str	r2, [r7, #4]
	/* Validate inputs. */
	Assert(p_tc);
	Assert(ul_channel <
			(sizeof(p_tc->TC_CHANNEL) / sizeof(p_tc->TC_CHANNEL[0])));

	p_tc->TC_CHANNEL[ul_channel].TC_RA = ul_value;
  400d60:	68fa      	ldr	r2, [r7, #12]
  400d62:	68bb      	ldr	r3, [r7, #8]
  400d64:	019b      	lsls	r3, r3, #6
  400d66:	4413      	add	r3, r2
  400d68:	3314      	adds	r3, #20
  400d6a:	687a      	ldr	r2, [r7, #4]
  400d6c:	601a      	str	r2, [r3, #0]
}
  400d6e:	bf00      	nop
  400d70:	3714      	adds	r7, #20
  400d72:	46bd      	mov	sp, r7
  400d74:	f85d 7b04 	ldr.w	r7, [sp], #4
  400d78:	4770      	bx	lr
  400d7a:	bf00      	nop

00400d7c <tc_write_rc>:
 */
void tc_write_rc(
		Tc *p_tc,
		uint32_t ul_channel,
		uint32_t ul_value)
{
  400d7c:	b480      	push	{r7}
  400d7e:	b085      	sub	sp, #20
  400d80:	af00      	add	r7, sp, #0
  400d82:	60f8      	str	r0, [r7, #12]
  400d84:	60b9      	str	r1, [r7, #8]
  400d86:	607a      	str	r2, [r7, #4]
	/* Validate inputs. */
	Assert(p_tc);
	Assert(ul_channel <
			(sizeof(p_tc->TC_CHANNEL) / sizeof(p_tc->TC_CHANNEL[0])));

	p_tc->TC_CHANNEL[ul_channel].TC_RC = ul_value;
  400d88:	68fa      	ldr	r2, [r7, #12]
  400d8a:	68bb      	ldr	r3, [r7, #8]
  400d8c:	019b      	lsls	r3, r3, #6
  400d8e:	4413      	add	r3, r2
  400d90:	331c      	adds	r3, #28
  400d92:	687a      	ldr	r2, [r7, #4]
  400d94:	601a      	str	r2, [r3, #0]
}
  400d96:	bf00      	nop
  400d98:	3714      	adds	r7, #20
  400d9a:	46bd      	mov	sp, r7
  400d9c:	f85d 7b04 	ldr.w	r7, [sp], #4
  400da0:	4770      	bx	lr
  400da2:	bf00      	nop

00400da4 <tc_enable_interrupt>:
 */
void tc_enable_interrupt(
		Tc *p_tc,
		uint32_t ul_channel,
		uint32_t ul_sources)
{
  400da4:	b480      	push	{r7}
  400da6:	b087      	sub	sp, #28
  400da8:	af00      	add	r7, sp, #0
  400daa:	60f8      	str	r0, [r7, #12]
  400dac:	60b9      	str	r1, [r7, #8]
  400dae:	607a      	str	r2, [r7, #4]

	/* Validate inputs. */
	Assert(p_tc);
	Assert(ul_channel <
			(sizeof(p_tc->TC_CHANNEL) / sizeof(p_tc->TC_CHANNEL[0])));
	tc_channel = p_tc->TC_CHANNEL + ul_channel;
  400db0:	68fa      	ldr	r2, [r7, #12]
  400db2:	68bb      	ldr	r3, [r7, #8]
  400db4:	019b      	lsls	r3, r3, #6
  400db6:	4413      	add	r3, r2
  400db8:	617b      	str	r3, [r7, #20]
	tc_channel->TC_IER = ul_sources;
  400dba:	697b      	ldr	r3, [r7, #20]
  400dbc:	687a      	ldr	r2, [r7, #4]
  400dbe:	625a      	str	r2, [r3, #36]	; 0x24
}
  400dc0:	bf00      	nop
  400dc2:	371c      	adds	r7, #28
  400dc4:	46bd      	mov	sp, r7
  400dc6:	f85d 7b04 	ldr.w	r7, [sp], #4
  400dca:	4770      	bx	lr

00400dcc <tc_get_status>:
 * \return The current TC status.
 */
uint32_t tc_get_status(
		Tc *p_tc,
		uint32_t ul_channel)
{
  400dcc:	b480      	push	{r7}
  400dce:	b085      	sub	sp, #20
  400dd0:	af00      	add	r7, sp, #0
  400dd2:	6078      	str	r0, [r7, #4]
  400dd4:	6039      	str	r1, [r7, #0]
	/* Validate inputs. */
	Assert(p_tc);
	Assert(ul_channel <
			(sizeof(p_tc->TC_CHANNEL) / sizeof(p_tc->TC_CHANNEL[0])));
			
	tc_channel = p_tc->TC_CHANNEL + ul_channel;
  400dd6:	687a      	ldr	r2, [r7, #4]
  400dd8:	683b      	ldr	r3, [r7, #0]
  400dda:	019b      	lsls	r3, r3, #6
  400ddc:	4413      	add	r3, r2
  400dde:	60fb      	str	r3, [r7, #12]
	return tc_channel->TC_SR;
  400de0:	68fb      	ldr	r3, [r7, #12]
  400de2:	6a1b      	ldr	r3, [r3, #32]
}
  400de4:	4618      	mov	r0, r3
  400de6:	3714      	adds	r7, #20
  400de8:	46bd      	mov	sp, r7
  400dea:	f85d 7b04 	ldr.w	r7, [sp], #4
  400dee:	4770      	bx	lr

00400df0 <tc_find_mck_divisor>:
		uint32_t ul_freq,
		uint32_t ul_mck,
		uint32_t *p_uldiv,
		uint32_t *p_ultcclks,
		uint32_t ul_boardmck)
{
  400df0:	b480      	push	{r7}
  400df2:	b08d      	sub	sp, #52	; 0x34
  400df4:	af00      	add	r7, sp, #0
  400df6:	60f8      	str	r0, [r7, #12]
  400df8:	60b9      	str	r1, [r7, #8]
  400dfa:	607a      	str	r2, [r7, #4]
  400dfc:	603b      	str	r3, [r7, #0]
	const uint32_t divisors[5] = { 2, 8, 32, 128,
  400dfe:	2302      	movs	r3, #2
  400e00:	613b      	str	r3, [r7, #16]
  400e02:	2308      	movs	r3, #8
  400e04:	617b      	str	r3, [r7, #20]
  400e06:	2320      	movs	r3, #32
  400e08:	61bb      	str	r3, [r7, #24]
  400e0a:	2380      	movs	r3, #128	; 0x80
  400e0c:	61fb      	str	r3, [r7, #28]
			ul_boardmck / FREQ_SLOW_CLOCK_EXT };
  400e0e:	6bbb      	ldr	r3, [r7, #56]	; 0x38
  400e10:	0bdb      	lsrs	r3, r3, #15
		uint32_t ul_mck,
		uint32_t *p_uldiv,
		uint32_t *p_ultcclks,
		uint32_t ul_boardmck)
{
	const uint32_t divisors[5] = { 2, 8, 32, 128,
  400e12:	623b      	str	r3, [r7, #32]
			ul_boardmck / FREQ_SLOW_CLOCK_EXT };
	uint32_t ul_index;
	uint32_t ul_high, ul_low;

	/*  Satisfy frequency bound. */
	for (ul_index = 0;
  400e14:	2300      	movs	r3, #0
  400e16:	62fb      	str	r3, [r7, #44]	; 0x2c
  400e18:	e01a      	b.n	400e50 <tc_find_mck_divisor+0x60>
			ul_index < (sizeof(divisors) / sizeof(divisors[0]));
			ul_index++) {
		ul_high = ul_mck / divisors[ul_index];
  400e1a:	6afb      	ldr	r3, [r7, #44]	; 0x2c
  400e1c:	009b      	lsls	r3, r3, #2
  400e1e:	f107 0230 	add.w	r2, r7, #48	; 0x30
  400e22:	4413      	add	r3, r2
  400e24:	f853 3c20 	ldr.w	r3, [r3, #-32]
  400e28:	68ba      	ldr	r2, [r7, #8]
  400e2a:	fbb2 f3f3 	udiv	r3, r2, r3
  400e2e:	62bb      	str	r3, [r7, #40]	; 0x28
		ul_low  = ul_high / TC_DIV_FACTOR;
  400e30:	6abb      	ldr	r3, [r7, #40]	; 0x28
  400e32:	0c1b      	lsrs	r3, r3, #16
  400e34:	627b      	str	r3, [r7, #36]	; 0x24
		if (ul_freq > ul_high) {
  400e36:	68fa      	ldr	r2, [r7, #12]
  400e38:	6abb      	ldr	r3, [r7, #40]	; 0x28
  400e3a:	429a      	cmp	r2, r3
  400e3c:	d901      	bls.n	400e42 <tc_find_mck_divisor+0x52>
			return 0;
  400e3e:	2300      	movs	r3, #0
  400e40:	e023      	b.n	400e8a <tc_find_mck_divisor+0x9a>
		} else if (ul_freq >= ul_low) {
  400e42:	68fa      	ldr	r2, [r7, #12]
  400e44:	6a7b      	ldr	r3, [r7, #36]	; 0x24
  400e46:	429a      	cmp	r2, r3
  400e48:	d206      	bcs.n	400e58 <tc_find_mck_divisor+0x68>
	uint32_t ul_high, ul_low;

	/*  Satisfy frequency bound. */
	for (ul_index = 0;
			ul_index < (sizeof(divisors) / sizeof(divisors[0]));
			ul_index++) {
  400e4a:	6afb      	ldr	r3, [r7, #44]	; 0x2c
  400e4c:	3301      	adds	r3, #1
  400e4e:	62fb      	str	r3, [r7, #44]	; 0x2c
			ul_boardmck / FREQ_SLOW_CLOCK_EXT };
	uint32_t ul_index;
	uint32_t ul_high, ul_low;

	/*  Satisfy frequency bound. */
	for (ul_index = 0;
  400e50:	6afb      	ldr	r3, [r7, #44]	; 0x2c
  400e52:	2b04      	cmp	r3, #4
  400e54:	d9e1      	bls.n	400e1a <tc_find_mck_divisor+0x2a>
  400e56:	e000      	b.n	400e5a <tc_find_mck_divisor+0x6a>
		ul_high = ul_mck / divisors[ul_index];
		ul_low  = ul_high / TC_DIV_FACTOR;
		if (ul_freq > ul_high) {
			return 0;
		} else if (ul_freq >= ul_low) {
			break;
  400e58:	bf00      	nop
		}
	}
	if (ul_index >= (sizeof(divisors) / sizeof(divisors[0]))) {
  400e5a:	6afb      	ldr	r3, [r7, #44]	; 0x2c
  400e5c:	2b04      	cmp	r3, #4
  400e5e:	d901      	bls.n	400e64 <tc_find_mck_divisor+0x74>
		return 0;
  400e60:	2300      	movs	r3, #0
  400e62:	e012      	b.n	400e8a <tc_find_mck_divisor+0x9a>
	}

	/*  Store results. */
	if (p_uldiv) {
  400e64:	687b      	ldr	r3, [r7, #4]
  400e66:	2b00      	cmp	r3, #0
  400e68:	d008      	beq.n	400e7c <tc_find_mck_divisor+0x8c>
		*p_uldiv = divisors[ul_index];
  400e6a:	6afb      	ldr	r3, [r7, #44]	; 0x2c
  400e6c:	009b      	lsls	r3, r3, #2
  400e6e:	f107 0230 	add.w	r2, r7, #48	; 0x30
  400e72:	4413      	add	r3, r2
  400e74:	f853 2c20 	ldr.w	r2, [r3, #-32]
  400e78:	687b      	ldr	r3, [r7, #4]
  400e7a:	601a      	str	r2, [r3, #0]
	}

	if (p_ultcclks) {
  400e7c:	683b      	ldr	r3, [r7, #0]
  400e7e:	2b00      	cmp	r3, #0
  400e80:	d002      	beq.n	400e88 <tc_find_mck_divisor+0x98>
		*p_ultcclks = ul_index;
  400e82:	683b      	ldr	r3, [r7, #0]
  400e84:	6afa      	ldr	r2, [r7, #44]	; 0x2c
  400e86:	601a      	str	r2, [r3, #0]
	}

	return 1;
  400e88:	2301      	movs	r3, #1
}
  400e8a:	4618      	mov	r0, r3
  400e8c:	3734      	adds	r7, #52	; 0x34
  400e8e:	46bd      	mov	sp, r7
  400e90:	f85d 7b04 	ldr.w	r7, [sp], #4
  400e94:	4770      	bx	lr
  400e96:	bf00      	nop

00400e98 <uart_init>:
 *
 * \retval 0 Success.
 * \retval 1 Bad baud rate generator value.
 */
uint32_t uart_init(Uart *p_uart, const sam_uart_opt_t *p_uart_opt)
{
  400e98:	b480      	push	{r7}
  400e9a:	b085      	sub	sp, #20
  400e9c:	af00      	add	r7, sp, #0
  400e9e:	6078      	str	r0, [r7, #4]
  400ea0:	6039      	str	r1, [r7, #0]
	uint32_t cd = 0;
  400ea2:	2300      	movs	r3, #0
  400ea4:	60fb      	str	r3, [r7, #12]

	/* Reset and disable receiver & transmitter */
	p_uart->UART_CR = UART_CR_RSTRX | UART_CR_RSTTX
  400ea6:	687b      	ldr	r3, [r7, #4]
  400ea8:	22ac      	movs	r2, #172	; 0xac
  400eaa:	601a      	str	r2, [r3, #0]
			| UART_CR_RXDIS | UART_CR_TXDIS;

	/* Check and configure baudrate */
	/* Asynchronous, no oversampling */
	cd = (p_uart_opt->ul_mck / p_uart_opt->ul_baudrate) / UART_MCK_DIV;
  400eac:	683b      	ldr	r3, [r7, #0]
  400eae:	681a      	ldr	r2, [r3, #0]
  400eb0:	683b      	ldr	r3, [r7, #0]
  400eb2:	685b      	ldr	r3, [r3, #4]
  400eb4:	fbb2 f3f3 	udiv	r3, r2, r3
  400eb8:	091b      	lsrs	r3, r3, #4
  400eba:	60fb      	str	r3, [r7, #12]
	if (cd < UART_MCK_DIV_MIN_FACTOR || cd > UART_MCK_DIV_MAX_FACTOR)
  400ebc:	68fb      	ldr	r3, [r7, #12]
  400ebe:	2b00      	cmp	r3, #0
  400ec0:	d003      	beq.n	400eca <uart_init+0x32>
  400ec2:	68fb      	ldr	r3, [r7, #12]
  400ec4:	f5b3 3f80 	cmp.w	r3, #65536	; 0x10000
  400ec8:	d301      	bcc.n	400ece <uart_init+0x36>
		return 1;
  400eca:	2301      	movs	r3, #1
  400ecc:	e00a      	b.n	400ee4 <uart_init+0x4c>

	p_uart->UART_BRGR = cd;
  400ece:	687b      	ldr	r3, [r7, #4]
  400ed0:	68fa      	ldr	r2, [r7, #12]
  400ed2:	621a      	str	r2, [r3, #32]
	/* Configure mode */
	p_uart->UART_MR = p_uart_opt->ul_mode;
  400ed4:	683b      	ldr	r3, [r7, #0]
  400ed6:	689a      	ldr	r2, [r3, #8]
  400ed8:	687b      	ldr	r3, [r7, #4]
  400eda:	605a      	str	r2, [r3, #4]
	/* Disable PDC channel */
	p_uart->UART_PTCR = UART_PTCR_RXTDIS | UART_PTCR_TXTDIS;
#endif

	/* Enable receiver and transmitter */
	p_uart->UART_CR = UART_CR_RXEN | UART_CR_TXEN;
  400edc:	687b      	ldr	r3, [r7, #4]
  400ede:	2250      	movs	r2, #80	; 0x50
  400ee0:	601a      	str	r2, [r3, #0]

	return 0;
  400ee2:	2300      	movs	r3, #0
}
  400ee4:	4618      	mov	r0, r3
  400ee6:	3714      	adds	r7, #20
  400ee8:	46bd      	mov	sp, r7
  400eea:	f85d 7b04 	ldr.w	r7, [sp], #4
  400eee:	4770      	bx	lr

00400ef0 <uart_write>:
 *
 * \retval 0 Success.
 * \retval 1 I/O Failure, UART is not ready.
 */
uint32_t uart_write(Uart *p_uart, const uint8_t uc_data)
{
  400ef0:	b480      	push	{r7}
  400ef2:	b083      	sub	sp, #12
  400ef4:	af00      	add	r7, sp, #0
  400ef6:	6078      	str	r0, [r7, #4]
  400ef8:	460b      	mov	r3, r1
  400efa:	70fb      	strb	r3, [r7, #3]
	/* Check if the transmitter is ready */
	if (!(p_uart->UART_SR & UART_SR_TXRDY))
  400efc:	687b      	ldr	r3, [r7, #4]
  400efe:	695b      	ldr	r3, [r3, #20]
  400f00:	f003 0302 	and.w	r3, r3, #2
  400f04:	2b00      	cmp	r3, #0
  400f06:	d101      	bne.n	400f0c <uart_write+0x1c>
		return 1;
  400f08:	2301      	movs	r3, #1
  400f0a:	e003      	b.n	400f14 <uart_write+0x24>

	/* Send character */
	p_uart->UART_THR = uc_data;
  400f0c:	78fa      	ldrb	r2, [r7, #3]
  400f0e:	687b      	ldr	r3, [r7, #4]
  400f10:	61da      	str	r2, [r3, #28]
	return 0;
  400f12:	2300      	movs	r3, #0
}
  400f14:	4618      	mov	r0, r3
  400f16:	370c      	adds	r7, #12
  400f18:	46bd      	mov	sp, r7
  400f1a:	f85d 7b04 	ldr.w	r7, [sp], #4
  400f1e:	4770      	bx	lr

00400f20 <uart_read>:
 *
 * \retval 0 Success.
 * \retval 1 I/O Failure, UART is not ready.
 */
uint32_t uart_read(Uart *p_uart, uint8_t *puc_data)
{
  400f20:	b480      	push	{r7}
  400f22:	b083      	sub	sp, #12
  400f24:	af00      	add	r7, sp, #0
  400f26:	6078      	str	r0, [r7, #4]
  400f28:	6039      	str	r1, [r7, #0]
	/* Check if the receiver is ready */
	if ((p_uart->UART_SR & UART_SR_RXRDY) == 0)
  400f2a:	687b      	ldr	r3, [r7, #4]
  400f2c:	695b      	ldr	r3, [r3, #20]
  400f2e:	f003 0301 	and.w	r3, r3, #1
  400f32:	2b00      	cmp	r3, #0
  400f34:	d101      	bne.n	400f3a <uart_read+0x1a>
		return 1;
  400f36:	2301      	movs	r3, #1
  400f38:	e005      	b.n	400f46 <uart_read+0x26>

	/* Read character */
	*puc_data = (uint8_t) p_uart->UART_RHR;
  400f3a:	687b      	ldr	r3, [r7, #4]
  400f3c:	699b      	ldr	r3, [r3, #24]
  400f3e:	b2da      	uxtb	r2, r3
  400f40:	683b      	ldr	r3, [r7, #0]
  400f42:	701a      	strb	r2, [r3, #0]
	return 0;
  400f44:	2300      	movs	r3, #0
}
  400f46:	4618      	mov	r0, r3
  400f48:	370c      	adds	r7, #12
  400f4a:	46bd      	mov	sp, r7
  400f4c:	f85d 7b04 	ldr.w	r7, [sp], #4
  400f50:	4770      	bx	lr
  400f52:	bf00      	nop

00400f54 <usart_set_async_baudrate>:
 * \retval 1 Baud rate set point is out of range for the given input clock
 * frequency.
 */
uint32_t usart_set_async_baudrate(Usart *p_usart,
		uint32_t baudrate, uint32_t ul_mck)
{
  400f54:	b480      	push	{r7}
  400f56:	b089      	sub	sp, #36	; 0x24
  400f58:	af00      	add	r7, sp, #0
  400f5a:	60f8      	str	r0, [r7, #12]
  400f5c:	60b9      	str	r1, [r7, #8]
  400f5e:	607a      	str	r2, [r7, #4]
	uint32_t cd_fp;
	uint32_t cd;
	uint32_t fp;

	/* Calculate the receiver sampling divide of baudrate clock. */
	if (ul_mck >= HIGH_FRQ_SAMPLE_DIV * baudrate) {
  400f60:	68bb      	ldr	r3, [r7, #8]
  400f62:	011a      	lsls	r2, r3, #4
  400f64:	687b      	ldr	r3, [r7, #4]
  400f66:	429a      	cmp	r2, r3
  400f68:	d802      	bhi.n	400f70 <usart_set_async_baudrate+0x1c>
		over = HIGH_FRQ_SAMPLE_DIV;
  400f6a:	2310      	movs	r3, #16
  400f6c:	61fb      	str	r3, [r7, #28]
  400f6e:	e001      	b.n	400f74 <usart_set_async_baudrate+0x20>
	} else {
		over = LOW_FRQ_SAMPLE_DIV;
  400f70:	2308      	movs	r3, #8
  400f72:	61fb      	str	r3, [r7, #28]
	}

	/* Calculate clock divider according to the fraction calculated formula. */
	cd_fp = (8 * ul_mck + (over * baudrate) / 2) / (over * baudrate);
  400f74:	687b      	ldr	r3, [r7, #4]
  400f76:	00da      	lsls	r2, r3, #3
  400f78:	69fb      	ldr	r3, [r7, #28]
  400f7a:	68b9      	ldr	r1, [r7, #8]
  400f7c:	fb01 f303 	mul.w	r3, r1, r3
  400f80:	085b      	lsrs	r3, r3, #1
  400f82:	441a      	add	r2, r3
  400f84:	69fb      	ldr	r3, [r7, #28]
  400f86:	68b9      	ldr	r1, [r7, #8]
  400f88:	fb01 f303 	mul.w	r3, r1, r3
  400f8c:	fbb2 f3f3 	udiv	r3, r2, r3
  400f90:	61bb      	str	r3, [r7, #24]
	cd = cd_fp >> 3;
  400f92:	69bb      	ldr	r3, [r7, #24]
  400f94:	08db      	lsrs	r3, r3, #3
  400f96:	617b      	str	r3, [r7, #20]
	fp = cd_fp & 0x07;
  400f98:	69bb      	ldr	r3, [r7, #24]
  400f9a:	f003 0307 	and.w	r3, r3, #7
  400f9e:	613b      	str	r3, [r7, #16]
	if (cd < MIN_CD_VALUE || cd > MAX_CD_VALUE) {
  400fa0:	697b      	ldr	r3, [r7, #20]
  400fa2:	2b00      	cmp	r3, #0
  400fa4:	d003      	beq.n	400fae <usart_set_async_baudrate+0x5a>
  400fa6:	697b      	ldr	r3, [r7, #20]
  400fa8:	f5b3 3f80 	cmp.w	r3, #65536	; 0x10000
  400fac:	d301      	bcc.n	400fb2 <usart_set_async_baudrate+0x5e>
		return 1;
  400fae:	2301      	movs	r3, #1
  400fb0:	e00f      	b.n	400fd2 <usart_set_async_baudrate+0x7e>
	}

	/* Configure the OVER bit in MR register. */
	if (over == 8) {
  400fb2:	69fb      	ldr	r3, [r7, #28]
  400fb4:	2b08      	cmp	r3, #8
  400fb6:	d105      	bne.n	400fc4 <usart_set_async_baudrate+0x70>
		p_usart->US_MR |= US_MR_OVER;
  400fb8:	68fb      	ldr	r3, [r7, #12]
  400fba:	685b      	ldr	r3, [r3, #4]
  400fbc:	f443 2200 	orr.w	r2, r3, #524288	; 0x80000
  400fc0:	68fb      	ldr	r3, [r7, #12]
  400fc2:	605a      	str	r2, [r3, #4]
	}

	/* Configure the baudrate generate register. */
	p_usart->US_BRGR = (cd << US_BRGR_CD_Pos) | (fp << US_BRGR_FP_Pos);
  400fc4:	693b      	ldr	r3, [r7, #16]
  400fc6:	041a      	lsls	r2, r3, #16
  400fc8:	697b      	ldr	r3, [r7, #20]
  400fca:	431a      	orrs	r2, r3
  400fcc:	68fb      	ldr	r3, [r7, #12]
  400fce:	621a      	str	r2, [r3, #32]

	return 0;
  400fd0:	2300      	movs	r3, #0
}
  400fd2:	4618      	mov	r0, r3
  400fd4:	3724      	adds	r7, #36	; 0x24
  400fd6:	46bd      	mov	sp, r7
  400fd8:	f85d 7b04 	ldr.w	r7, [sp], #4
  400fdc:	4770      	bx	lr
  400fde:	bf00      	nop

00400fe0 <usart_reset>:
 * \brief Reset the USART and disable TX and RX.
 *
 * \param p_usart Pointer to a USART instance.
 */
void usart_reset(Usart *p_usart)
{
  400fe0:	b580      	push	{r7, lr}
  400fe2:	b082      	sub	sp, #8
  400fe4:	af00      	add	r7, sp, #0
  400fe6:	6078      	str	r0, [r7, #4]
	/* Disable the Write Protect. */
	usart_disable_writeprotect(p_usart);
  400fe8:	6878      	ldr	r0, [r7, #4]
  400fea:	4b0d      	ldr	r3, [pc, #52]	; (401020 <usart_reset+0x40>)
  400fec:	4798      	blx	r3

	/* Reset registers that could cause unpredictable behavior after reset. */
	p_usart->US_MR = 0;
  400fee:	687b      	ldr	r3, [r7, #4]
  400ff0:	2200      	movs	r2, #0
  400ff2:	605a      	str	r2, [r3, #4]
	p_usart->US_RTOR = 0;
  400ff4:	687b      	ldr	r3, [r7, #4]
  400ff6:	2200      	movs	r2, #0
  400ff8:	625a      	str	r2, [r3, #36]	; 0x24
	p_usart->US_TTGR = 0;
  400ffa:	687b      	ldr	r3, [r7, #4]
  400ffc:	2200      	movs	r2, #0
  400ffe:	629a      	str	r2, [r3, #40]	; 0x28

	/* Disable TX and RX. */
	usart_reset_tx(p_usart);
  401000:	6878      	ldr	r0, [r7, #4]
  401002:	4b08      	ldr	r3, [pc, #32]	; (401024 <usart_reset+0x44>)
  401004:	4798      	blx	r3
	usart_reset_rx(p_usart);
  401006:	6878      	ldr	r0, [r7, #4]
  401008:	4b07      	ldr	r3, [pc, #28]	; (401028 <usart_reset+0x48>)
  40100a:	4798      	blx	r3
	/* Reset status bits. */
	usart_reset_status(p_usart);
  40100c:	6878      	ldr	r0, [r7, #4]
  40100e:	4b07      	ldr	r3, [pc, #28]	; (40102c <usart_reset+0x4c>)
  401010:	4798      	blx	r3
	/* Turn off RTS and DTR if exist. */
	usart_drive_RTS_pin_high(p_usart);
  401012:	6878      	ldr	r0, [r7, #4]
  401014:	4b06      	ldr	r3, [pc, #24]	; (401030 <usart_reset+0x50>)
  401016:	4798      	blx	r3
#if (SAM3S || SAM4S || SAM3U || SAM4L || SAM4E)
	usart_drive_DTR_pin_high(p_usart);
#endif
}
  401018:	bf00      	nop
  40101a:	3708      	adds	r7, #8
  40101c:	46bd      	mov	sp, r7
  40101e:	bd80      	pop	{r7, pc}
  401020:	004011c9 	.word	0x004011c9
  401024:	004010d5 	.word	0x004010d5
  401028:	0040110d 	.word	0x0040110d
  40102c:	00401129 	.word	0x00401129
  401030:	00401145 	.word	0x00401145

00401034 <usart_init_rs232>:
 * \retval 0 on success.
 * \retval 1 on failure.
 */
uint32_t usart_init_rs232(Usart *p_usart,
		const sam_usart_opt_t *p_usart_opt, uint32_t ul_mck)
{
  401034:	b580      	push	{r7, lr}
  401036:	b084      	sub	sp, #16
  401038:	af00      	add	r7, sp, #0
  40103a:	60f8      	str	r0, [r7, #12]
  40103c:	60b9      	str	r1, [r7, #8]
  40103e:	607a      	str	r2, [r7, #4]
	static uint32_t ul_reg_val;

	/* Reset the USART and shut down TX and RX. */
	usart_reset(p_usart);
  401040:	68f8      	ldr	r0, [r7, #12]
  401042:	4b1a      	ldr	r3, [pc, #104]	; (4010ac <usart_init_rs232+0x78>)
  401044:	4798      	blx	r3

	ul_reg_val = 0;
  401046:	4b1a      	ldr	r3, [pc, #104]	; (4010b0 <usart_init_rs232+0x7c>)
  401048:	2200      	movs	r2, #0
  40104a:	601a      	str	r2, [r3, #0]
	/* Check whether the input values are legal. */
	if (!p_usart_opt || usart_set_async_baudrate(p_usart,
  40104c:	68bb      	ldr	r3, [r7, #8]
  40104e:	2b00      	cmp	r3, #0
  401050:	d009      	beq.n	401066 <usart_init_rs232+0x32>
  401052:	68bb      	ldr	r3, [r7, #8]
  401054:	681b      	ldr	r3, [r3, #0]
  401056:	687a      	ldr	r2, [r7, #4]
  401058:	4619      	mov	r1, r3
  40105a:	68f8      	ldr	r0, [r7, #12]
  40105c:	4b15      	ldr	r3, [pc, #84]	; (4010b4 <usart_init_rs232+0x80>)
  40105e:	4798      	blx	r3
  401060:	4603      	mov	r3, r0
  401062:	2b00      	cmp	r3, #0
  401064:	d001      	beq.n	40106a <usart_init_rs232+0x36>
			p_usart_opt->baudrate, ul_mck)) {
		return 1;
  401066:	2301      	movs	r3, #1
  401068:	e01b      	b.n	4010a2 <usart_init_rs232+0x6e>
	}

	/* Configure the USART option. */
	ul_reg_val |= p_usart_opt->char_length | p_usart_opt->parity_type |
  40106a:	68bb      	ldr	r3, [r7, #8]
  40106c:	685a      	ldr	r2, [r3, #4]
  40106e:	68bb      	ldr	r3, [r7, #8]
  401070:	689b      	ldr	r3, [r3, #8]
  401072:	431a      	orrs	r2, r3
			p_usart_opt->channel_mode | p_usart_opt->stop_bits;
  401074:	68bb      	ldr	r3, [r7, #8]
  401076:	691b      	ldr	r3, [r3, #16]
			p_usart_opt->baudrate, ul_mck)) {
		return 1;
	}

	/* Configure the USART option. */
	ul_reg_val |= p_usart_opt->char_length | p_usart_opt->parity_type |
  401078:	431a      	orrs	r2, r3
			p_usart_opt->channel_mode | p_usart_opt->stop_bits;
  40107a:	68bb      	ldr	r3, [r7, #8]
  40107c:	68db      	ldr	r3, [r3, #12]
  40107e:	431a      	orrs	r2, r3
			p_usart_opt->baudrate, ul_mck)) {
		return 1;
	}

	/* Configure the USART option. */
	ul_reg_val |= p_usart_opt->char_length | p_usart_opt->parity_type |
  401080:	4b0b      	ldr	r3, [pc, #44]	; (4010b0 <usart_init_rs232+0x7c>)
  401082:	681b      	ldr	r3, [r3, #0]
  401084:	4313      	orrs	r3, r2
  401086:	4a0a      	ldr	r2, [pc, #40]	; (4010b0 <usart_init_rs232+0x7c>)
  401088:	6013      	str	r3, [r2, #0]
			p_usart_opt->channel_mode | p_usart_opt->stop_bits;

	/* Configure the USART mode as normal mode. */
	ul_reg_val |= US_MR_USART_MODE_NORMAL;
  40108a:	4b09      	ldr	r3, [pc, #36]	; (4010b0 <usart_init_rs232+0x7c>)
  40108c:	681b      	ldr	r3, [r3, #0]
  40108e:	4a08      	ldr	r2, [pc, #32]	; (4010b0 <usart_init_rs232+0x7c>)
  401090:	6013      	str	r3, [r2, #0]

	p_usart->US_MR |= ul_reg_val;
  401092:	68fb      	ldr	r3, [r7, #12]
  401094:	685a      	ldr	r2, [r3, #4]
  401096:	4b06      	ldr	r3, [pc, #24]	; (4010b0 <usart_init_rs232+0x7c>)
  401098:	681b      	ldr	r3, [r3, #0]
  40109a:	431a      	orrs	r2, r3
  40109c:	68fb      	ldr	r3, [r7, #12]
  40109e:	605a      	str	r2, [r3, #4]

	return 0;
  4010a0:	2300      	movs	r3, #0
}
  4010a2:	4618      	mov	r0, r3
  4010a4:	3710      	adds	r7, #16
  4010a6:	46bd      	mov	sp, r7
  4010a8:	bd80      	pop	{r7, pc}
  4010aa:	bf00      	nop
  4010ac:	00400fe1 	.word	0x00400fe1
  4010b0:	204008d0 	.word	0x204008d0
  4010b4:	00400f55 	.word	0x00400f55

004010b8 <usart_enable_tx>:
 * \brief Enable USART transmitter.
 *
 * \param p_usart Pointer to a USART instance.
 */
void usart_enable_tx(Usart *p_usart)
{
  4010b8:	b480      	push	{r7}
  4010ba:	b083      	sub	sp, #12
  4010bc:	af00      	add	r7, sp, #0
  4010be:	6078      	str	r0, [r7, #4]
	p_usart->US_CR = US_CR_TXEN;
  4010c0:	687b      	ldr	r3, [r7, #4]
  4010c2:	2240      	movs	r2, #64	; 0x40
  4010c4:	601a      	str	r2, [r3, #0]
}
  4010c6:	bf00      	nop
  4010c8:	370c      	adds	r7, #12
  4010ca:	46bd      	mov	sp, r7
  4010cc:	f85d 7b04 	ldr.w	r7, [sp], #4
  4010d0:	4770      	bx	lr
  4010d2:	bf00      	nop

004010d4 <usart_reset_tx>:
 * \brief Immediately stop and disable USART transmitter.
 *
 * \param p_usart Pointer to a USART instance.
 */
void usart_reset_tx(Usart *p_usart)
{
  4010d4:	b480      	push	{r7}
  4010d6:	b083      	sub	sp, #12
  4010d8:	af00      	add	r7, sp, #0
  4010da:	6078      	str	r0, [r7, #4]
	/* Reset transmitter */
	p_usart->US_CR = US_CR_RSTTX | US_CR_TXDIS;
  4010dc:	687b      	ldr	r3, [r7, #4]
  4010de:	2288      	movs	r2, #136	; 0x88
  4010e0:	601a      	str	r2, [r3, #0]
}
  4010e2:	bf00      	nop
  4010e4:	370c      	adds	r7, #12
  4010e6:	46bd      	mov	sp, r7
  4010e8:	f85d 7b04 	ldr.w	r7, [sp], #4
  4010ec:	4770      	bx	lr
  4010ee:	bf00      	nop

004010f0 <usart_enable_rx>:
 * \brief Enable USART receiver.
 *
 * \param p_usart Pointer to a USART instance.
 */
void usart_enable_rx(Usart *p_usart)
{
  4010f0:	b480      	push	{r7}
  4010f2:	b083      	sub	sp, #12
  4010f4:	af00      	add	r7, sp, #0
  4010f6:	6078      	str	r0, [r7, #4]
	p_usart->US_CR = US_CR_RXEN;
  4010f8:	687b      	ldr	r3, [r7, #4]
  4010fa:	2210      	movs	r2, #16
  4010fc:	601a      	str	r2, [r3, #0]
}
  4010fe:	bf00      	nop
  401100:	370c      	adds	r7, #12
  401102:	46bd      	mov	sp, r7
  401104:	f85d 7b04 	ldr.w	r7, [sp], #4
  401108:	4770      	bx	lr
  40110a:	bf00      	nop

0040110c <usart_reset_rx>:
 * \brief Immediately stop and disable USART receiver.
 *
 * \param p_usart Pointer to a USART instance.
 */
void usart_reset_rx(Usart *p_usart)
{
  40110c:	b480      	push	{r7}
  40110e:	b083      	sub	sp, #12
  401110:	af00      	add	r7, sp, #0
  401112:	6078      	str	r0, [r7, #4]
	/* Reset Receiver */
	p_usart->US_CR = US_CR_RSTRX | US_CR_RXDIS;
  401114:	687b      	ldr	r3, [r7, #4]
  401116:	2224      	movs	r2, #36	; 0x24
  401118:	601a      	str	r2, [r3, #0]
}
  40111a:	bf00      	nop
  40111c:	370c      	adds	r7, #12
  40111e:	46bd      	mov	sp, r7
  401120:	f85d 7b04 	ldr.w	r7, [sp], #4
  401124:	4770      	bx	lr
  401126:	bf00      	nop

00401128 <usart_reset_status>:
 * \brief Reset status bits (PARE, OVER, MANERR, UNRE and PXBRK in US_CSR).
 *
 * \param p_usart Pointer to a USART instance.
 */
void usart_reset_status(Usart *p_usart)
{
  401128:	b480      	push	{r7}
  40112a:	b083      	sub	sp, #12
  40112c:	af00      	add	r7, sp, #0
  40112e:	6078      	str	r0, [r7, #4]
	p_usart->US_CR = US_CR_RSTSTA;
  401130:	687b      	ldr	r3, [r7, #4]
  401132:	f44f 7280 	mov.w	r2, #256	; 0x100
  401136:	601a      	str	r2, [r3, #0]
}
  401138:	bf00      	nop
  40113a:	370c      	adds	r7, #12
  40113c:	46bd      	mov	sp, r7
  40113e:	f85d 7b04 	ldr.w	r7, [sp], #4
  401142:	4770      	bx	lr

00401144 <usart_drive_RTS_pin_high>:
 * \brief Drive the pin RTS to 1.
 *
 * \param p_usart Pointer to a USART instance.
 */
void usart_drive_RTS_pin_high(Usart *p_usart)
{
  401144:	b480      	push	{r7}
  401146:	b083      	sub	sp, #12
  401148:	af00      	add	r7, sp, #0
  40114a:	6078      	str	r0, [r7, #4]
	p_usart->US_CR = US_CR_RTSDIS;
  40114c:	687b      	ldr	r3, [r7, #4]
  40114e:	f44f 2200 	mov.w	r2, #524288	; 0x80000
  401152:	601a      	str	r2, [r3, #0]
}
  401154:	bf00      	nop
  401156:	370c      	adds	r7, #12
  401158:	46bd      	mov	sp, r7
  40115a:	f85d 7b04 	ldr.w	r7, [sp], #4
  40115e:	4770      	bx	lr

00401160 <usart_write>:
 *
 * \retval 0 on success.
 * \retval 1 on failure.
 */
uint32_t usart_write(Usart *p_usart, uint32_t c)
{
  401160:	b480      	push	{r7}
  401162:	b083      	sub	sp, #12
  401164:	af00      	add	r7, sp, #0
  401166:	6078      	str	r0, [r7, #4]
  401168:	6039      	str	r1, [r7, #0]
	if (!(p_usart->US_CSR & US_CSR_TXRDY)) {
  40116a:	687b      	ldr	r3, [r7, #4]
  40116c:	695b      	ldr	r3, [r3, #20]
  40116e:	f003 0302 	and.w	r3, r3, #2
  401172:	2b00      	cmp	r3, #0
  401174:	d101      	bne.n	40117a <usart_write+0x1a>
		return 1;
  401176:	2301      	movs	r3, #1
  401178:	e005      	b.n	401186 <usart_write+0x26>
	}

	p_usart->US_THR = US_THR_TXCHR(c);
  40117a:	683b      	ldr	r3, [r7, #0]
  40117c:	f3c3 0208 	ubfx	r2, r3, #0, #9
  401180:	687b      	ldr	r3, [r7, #4]
  401182:	61da      	str	r2, [r3, #28]
	return 0;
  401184:	2300      	movs	r3, #0
}
  401186:	4618      	mov	r0, r3
  401188:	370c      	adds	r7, #12
  40118a:	46bd      	mov	sp, r7
  40118c:	f85d 7b04 	ldr.w	r7, [sp], #4
  401190:	4770      	bx	lr
  401192:	bf00      	nop

00401194 <usart_read>:
 *
 * \retval 0 on success.
 * \retval 1 if no data is available or errors.
 */
uint32_t usart_read(Usart *p_usart, uint32_t *c)
{
  401194:	b480      	push	{r7}
  401196:	b083      	sub	sp, #12
  401198:	af00      	add	r7, sp, #0
  40119a:	6078      	str	r0, [r7, #4]
  40119c:	6039      	str	r1, [r7, #0]
	if (!(p_usart->US_CSR & US_CSR_RXRDY)) {
  40119e:	687b      	ldr	r3, [r7, #4]
  4011a0:	695b      	ldr	r3, [r3, #20]
  4011a2:	f003 0301 	and.w	r3, r3, #1
  4011a6:	2b00      	cmp	r3, #0
  4011a8:	d101      	bne.n	4011ae <usart_read+0x1a>
		return 1;
  4011aa:	2301      	movs	r3, #1
  4011ac:	e006      	b.n	4011bc <usart_read+0x28>
	}

	/* Read character */
	*c = p_usart->US_RHR & US_RHR_RXCHR_Msk;
  4011ae:	687b      	ldr	r3, [r7, #4]
  4011b0:	699b      	ldr	r3, [r3, #24]
  4011b2:	f3c3 0208 	ubfx	r2, r3, #0, #9
  4011b6:	683b      	ldr	r3, [r7, #0]
  4011b8:	601a      	str	r2, [r3, #0]

	return 0;
  4011ba:	2300      	movs	r3, #0
}
  4011bc:	4618      	mov	r0, r3
  4011be:	370c      	adds	r7, #12
  4011c0:	46bd      	mov	sp, r7
  4011c2:	f85d 7b04 	ldr.w	r7, [sp], #4
  4011c6:	4770      	bx	lr

004011c8 <usart_disable_writeprotect>:
 * \brief Disable write protect of USART registers.
 *
 * \param p_usart Pointer to a USART instance.
 */
void usart_disable_writeprotect(Usart *p_usart)
{
  4011c8:	b480      	push	{r7}
  4011ca:	b083      	sub	sp, #12
  4011cc:	af00      	add	r7, sp, #0
  4011ce:	6078      	str	r0, [r7, #4]
	p_usart->US_WPMR = US_WPMR_WPKEY_PASSWD;
  4011d0:	687b      	ldr	r3, [r7, #4]
  4011d2:	4a04      	ldr	r2, [pc, #16]	; (4011e4 <usart_disable_writeprotect+0x1c>)
  4011d4:	f8c3 20e4 	str.w	r2, [r3, #228]	; 0xe4
}
  4011d8:	bf00      	nop
  4011da:	370c      	adds	r7, #12
  4011dc:	46bd      	mov	sp, r7
  4011de:	f85d 7b04 	ldr.w	r7, [sp], #4
  4011e2:	4770      	bx	lr
  4011e4:	55534100 	.word	0x55534100

004011e8 <cpu_irq_save>:

static volatile uint32_t cpu_irq_critical_section_counter;
static volatile bool     cpu_irq_prev_interrupt_state;

static inline irqflags_t cpu_irq_save(void)
{
  4011e8:	b480      	push	{r7}
  4011ea:	b083      	sub	sp, #12
  4011ec:	af00      	add	r7, sp, #0
 */
__attribute__( ( always_inline ) ) __STATIC_INLINE uint32_t __get_PRIMASK(void)
{
  uint32_t result;

  __ASM volatile ("MRS %0, primask" : "=r" (result) );
  4011ee:	f3ef 8310 	mrs	r3, PRIMASK
  4011f2:	607b      	str	r3, [r7, #4]
  return(result);
  4011f4:	687b      	ldr	r3, [r7, #4]
	volatile irqflags_t flags = cpu_irq_is_enabled();
  4011f6:	2b00      	cmp	r3, #0
  4011f8:	bf0c      	ite	eq
  4011fa:	2301      	moveq	r3, #1
  4011fc:	2300      	movne	r3, #0
  4011fe:	b2db      	uxtb	r3, r3
  401200:	603b      	str	r3, [r7, #0]
  This function disables IRQ interrupts by setting the I-bit in the CPSR.
  Can only be executed in Privileged modes.
 */
__attribute__( ( always_inline ) ) __STATIC_INLINE void __disable_irq(void)
{
  __ASM volatile ("cpsid i" : : : "memory");
  401202:	b672      	cpsid	i
    This function ensures the apparent order of the explicit memory operations before
    and after the instruction, without ensuring their completion.
 */
__attribute__( ( always_inline ) ) __STATIC_INLINE void __DMB(void)
{
  __ASM volatile ("dmb");
  401204:	f3bf 8f5f 	dmb	sy
	cpu_irq_disable();
  401208:	4b04      	ldr	r3, [pc, #16]	; (40121c <cpu_irq_save+0x34>)
  40120a:	2200      	movs	r2, #0
  40120c:	701a      	strb	r2, [r3, #0]
	return flags;
  40120e:	683b      	ldr	r3, [r7, #0]
}
  401210:	4618      	mov	r0, r3
  401212:	370c      	adds	r7, #12
  401214:	46bd      	mov	sp, r7
  401216:	f85d 7b04 	ldr.w	r7, [sp], #4
  40121a:	4770      	bx	lr
  40121c:	20400000 	.word	0x20400000

00401220 <cpu_irq_is_enabled_flags>:

static inline bool cpu_irq_is_enabled_flags(irqflags_t flags)
{
  401220:	b480      	push	{r7}
  401222:	b083      	sub	sp, #12
  401224:	af00      	add	r7, sp, #0
  401226:	6078      	str	r0, [r7, #4]
	return (flags);
  401228:	687b      	ldr	r3, [r7, #4]
  40122a:	2b00      	cmp	r3, #0
  40122c:	bf14      	ite	ne
  40122e:	2301      	movne	r3, #1
  401230:	2300      	moveq	r3, #0
  401232:	b2db      	uxtb	r3, r3
}
  401234:	4618      	mov	r0, r3
  401236:	370c      	adds	r7, #12
  401238:	46bd      	mov	sp, r7
  40123a:	f85d 7b04 	ldr.w	r7, [sp], #4
  40123e:	4770      	bx	lr

00401240 <cpu_irq_restore>:

static inline void cpu_irq_restore(irqflags_t flags)
{
  401240:	b580      	push	{r7, lr}
  401242:	b082      	sub	sp, #8
  401244:	af00      	add	r7, sp, #0
  401246:	6078      	str	r0, [r7, #4]
	if (cpu_irq_is_enabled_flags(flags))
  401248:	6878      	ldr	r0, [r7, #4]
  40124a:	4b07      	ldr	r3, [pc, #28]	; (401268 <cpu_irq_restore+0x28>)
  40124c:	4798      	blx	r3
  40124e:	4603      	mov	r3, r0
  401250:	2b00      	cmp	r3, #0
  401252:	d005      	beq.n	401260 <cpu_irq_restore+0x20>
		cpu_irq_enable();
  401254:	4b05      	ldr	r3, [pc, #20]	; (40126c <cpu_irq_restore+0x2c>)
  401256:	2201      	movs	r2, #1
  401258:	701a      	strb	r2, [r3, #0]
  40125a:	f3bf 8f5f 	dmb	sy
  This function enables IRQ interrupts by clearing the I-bit in the CPSR.
  Can only be executed in Privileged modes.
 */
__attribute__( ( always_inline ) ) __STATIC_INLINE void __enable_irq(void)
{
  __ASM volatile ("cpsie i" : : : "memory");
  40125e:	b662      	cpsie	i
}
  401260:	bf00      	nop
  401262:	3708      	adds	r7, #8
  401264:	46bd      	mov	sp, r7
  401266:	bd80      	pop	{r7, pc}
  401268:	00401221 	.word	0x00401221
  40126c:	20400000 	.word	0x20400000

00401270 <Reset_Handler>:
/**
 * \brief This is the code that gets called on processor reset.
 * To initialize the device, and call the main() routine.
 */
void Reset_Handler(void)
{
  401270:	b580      	push	{r7, lr}
  401272:	b084      	sub	sp, #16
  401274:	af00      	add	r7, sp, #0
        uint32_t *pSrc, *pDest;

        /* Initialize the relocate segment */
        pSrc = &_etext;
  401276:	4b1e      	ldr	r3, [pc, #120]	; (4012f0 <Reset_Handler+0x80>)
  401278:	60fb      	str	r3, [r7, #12]
        pDest = &_srelocate;
  40127a:	4b1e      	ldr	r3, [pc, #120]	; (4012f4 <Reset_Handler+0x84>)
  40127c:	60bb      	str	r3, [r7, #8]

        if (pSrc != pDest) {
  40127e:	68fa      	ldr	r2, [r7, #12]
  401280:	68bb      	ldr	r3, [r7, #8]
  401282:	429a      	cmp	r2, r3
  401284:	d00c      	beq.n	4012a0 <Reset_Handler+0x30>
                for (; pDest < &_erelocate;) {
  401286:	e007      	b.n	401298 <Reset_Handler+0x28>
                        *pDest++ = *pSrc++;
  401288:	68bb      	ldr	r3, [r7, #8]
  40128a:	1d1a      	adds	r2, r3, #4
  40128c:	60ba      	str	r2, [r7, #8]
  40128e:	68fa      	ldr	r2, [r7, #12]
  401290:	1d11      	adds	r1, r2, #4
  401292:	60f9      	str	r1, [r7, #12]
  401294:	6812      	ldr	r2, [r2, #0]
  401296:	601a      	str	r2, [r3, #0]
        /* Initialize the relocate segment */
        pSrc = &_etext;
        pDest = &_srelocate;

        if (pSrc != pDest) {
                for (; pDest < &_erelocate;) {
  401298:	68bb      	ldr	r3, [r7, #8]
  40129a:	4a17      	ldr	r2, [pc, #92]	; (4012f8 <Reset_Handler+0x88>)
  40129c:	4293      	cmp	r3, r2
  40129e:	d3f3      	bcc.n	401288 <Reset_Handler+0x18>
                        *pDest++ = *pSrc++;
                }
        }

        /* Clear the zero segment */
        for (pDest = &_szero; pDest < &_ezero;) {
  4012a0:	4b16      	ldr	r3, [pc, #88]	; (4012fc <Reset_Handler+0x8c>)
  4012a2:	60bb      	str	r3, [r7, #8]
  4012a4:	e004      	b.n	4012b0 <Reset_Handler+0x40>
                *pDest++ = 0;
  4012a6:	68bb      	ldr	r3, [r7, #8]
  4012a8:	1d1a      	adds	r2, r3, #4
  4012aa:	60ba      	str	r2, [r7, #8]
  4012ac:	2200      	movs	r2, #0
  4012ae:	601a      	str	r2, [r3, #0]
                        *pDest++ = *pSrc++;
                }
        }

        /* Clear the zero segment */
        for (pDest = &_szero; pDest < &_ezero;) {
  4012b0:	68bb      	ldr	r3, [r7, #8]
  4012b2:	4a13      	ldr	r2, [pc, #76]	; (401300 <Reset_Handler+0x90>)
  4012b4:	4293      	cmp	r3, r2
  4012b6:	d3f6      	bcc.n	4012a6 <Reset_Handler+0x36>
                *pDest++ = 0;
        }

        /* Set the vector table base address */
        pSrc = (uint32_t *) & _sfixed;
  4012b8:	4b12      	ldr	r3, [pc, #72]	; (401304 <Reset_Handler+0x94>)
  4012ba:	60fb      	str	r3, [r7, #12]
        SCB->VTOR = ((uint32_t) pSrc & SCB_VTOR_TBLOFF_Msk);
  4012bc:	4a12      	ldr	r2, [pc, #72]	; (401308 <Reset_Handler+0x98>)
  4012be:	68fb      	ldr	r3, [r7, #12]
  4012c0:	f023 037f 	bic.w	r3, r3, #127	; 0x7f
  4012c4:	6093      	str	r3, [r2, #8]
 * \brief Enable FPU
 */
__always_inline static void fpu_enable(void)
{
	irqflags_t flags;
	flags = cpu_irq_save();
  4012c6:	4b11      	ldr	r3, [pc, #68]	; (40130c <Reset_Handler+0x9c>)
  4012c8:	4798      	blx	r3
  4012ca:	6078      	str	r0, [r7, #4]
	REG_CPACR |=  (0xFu << 20);
  4012cc:	4a10      	ldr	r2, [pc, #64]	; (401310 <Reset_Handler+0xa0>)
  4012ce:	4b10      	ldr	r3, [pc, #64]	; (401310 <Reset_Handler+0xa0>)
  4012d0:	681b      	ldr	r3, [r3, #0]
  4012d2:	f443 0370 	orr.w	r3, r3, #15728640	; 0xf00000
  4012d6:	6013      	str	r3, [r2, #0]
    This function acts as a special kind of Data Memory Barrier.
    It completes when all explicit memory accesses before this instruction complete.
 */
__attribute__( ( always_inline ) ) __STATIC_INLINE void __DSB(void)
{
  __ASM volatile ("dsb");
  4012d8:	f3bf 8f4f 	dsb	sy
    so that all instructions following the ISB are fetched from cache or
    memory, after the instruction has been completed.
 */
__attribute__( ( always_inline ) ) __STATIC_INLINE void __ISB(void)
{
  __ASM volatile ("isb");
  4012dc:	f3bf 8f6f 	isb	sy
	__DSB();
	__ISB();
	cpu_irq_restore(flags);
  4012e0:	6878      	ldr	r0, [r7, #4]
  4012e2:	4b0c      	ldr	r3, [pc, #48]	; (401314 <Reset_Handler+0xa4>)
  4012e4:	4798      	blx	r3
#if __FPU_USED
	fpu_enable();
#endif

        /* Initialize the C library */
        __libc_init_array();
  4012e6:	4b0c      	ldr	r3, [pc, #48]	; (401318 <Reset_Handler+0xa8>)
  4012e8:	4798      	blx	r3

        /* Branch to main function */
        main();
  4012ea:	4b0c      	ldr	r3, [pc, #48]	; (40131c <Reset_Handler+0xac>)
  4012ec:	4798      	blx	r3

        /* Infinite loop */
        while (1);
  4012ee:	e7fe      	b.n	4012ee <Reset_Handler+0x7e>
  4012f0:	00402dd4 	.word	0x00402dd4
  4012f4:	20400000 	.word	0x20400000
  4012f8:	20400844 	.word	0x20400844
  4012fc:	20400844 	.word	0x20400844
  401300:	2040091c 	.word	0x2040091c
  401304:	00400000 	.word	0x00400000
  401308:	e000ed00 	.word	0xe000ed00
  40130c:	004011e9 	.word	0x004011e9
  401310:	e000ed88 	.word	0xe000ed88
  401314:	00401241 	.word	0x00401241
  401318:	00401d45 	.word	0x00401d45
  40131c:	00401d05 	.word	0x00401d05

00401320 <Dummy_Handler>:

/**
 * \brief Default interrupt handler for unused IRQs.
 */
void Dummy_Handler(void)
{
  401320:	b480      	push	{r7}
  401322:	af00      	add	r7, sp, #0
        while (1) {
        }
  401324:	e7fe      	b.n	401324 <Dummy_Handler+0x4>
  401326:	bf00      	nop

00401328 <SystemCoreClockUpdate>:

  SystemCoreClock = CHIP_FREQ_CPU_MAX;
}

void SystemCoreClockUpdate( void )
{
  401328:	b480      	push	{r7}
  40132a:	af00      	add	r7, sp, #0
  /* Determine clock frequency according to clock register values */
  switch (PMC->PMC_MCKR & (uint32_t) PMC_MCKR_CSS_Msk)
  40132c:	4b52      	ldr	r3, [pc, #328]	; (401478 <SystemCoreClockUpdate+0x150>)
  40132e:	6b1b      	ldr	r3, [r3, #48]	; 0x30
  401330:	f003 0303 	and.w	r3, r3, #3
  401334:	2b01      	cmp	r3, #1
  401336:	d014      	beq.n	401362 <SystemCoreClockUpdate+0x3a>
  401338:	2b01      	cmp	r3, #1
  40133a:	d302      	bcc.n	401342 <SystemCoreClockUpdate+0x1a>
  40133c:	2b02      	cmp	r3, #2
  40133e:	d038      	beq.n	4013b2 <SystemCoreClockUpdate+0x8a>
        SystemCoreClock /= ((((PMC->CKGR_PLLAR) & CKGR_PLLAR_DIVA_Msk) >> CKGR_PLLAR_DIVA_Pos));
      }
    break;

    default:
    break;
  401340:	e07a      	b.n	401438 <SystemCoreClockUpdate+0x110>
{
  /* Determine clock frequency according to clock register values */
  switch (PMC->PMC_MCKR & (uint32_t) PMC_MCKR_CSS_Msk)
  {
    case PMC_MCKR_CSS_SLOW_CLK: /* Slow clock */
      if ( SUPC->SUPC_SR & SUPC_SR_OSCSEL )
  401342:	4b4e      	ldr	r3, [pc, #312]	; (40147c <SystemCoreClockUpdate+0x154>)
  401344:	695b      	ldr	r3, [r3, #20]
  401346:	f003 0380 	and.w	r3, r3, #128	; 0x80
  40134a:	2b00      	cmp	r3, #0
  40134c:	d004      	beq.n	401358 <SystemCoreClockUpdate+0x30>
      {
        SystemCoreClock = CHIP_FREQ_XTAL_32K;
  40134e:	4b4c      	ldr	r3, [pc, #304]	; (401480 <SystemCoreClockUpdate+0x158>)
  401350:	f44f 4200 	mov.w	r2, #32768	; 0x8000
  401354:	601a      	str	r2, [r3, #0]
      }
      else
      {
        SystemCoreClock = CHIP_FREQ_SLCK_RC;
      }
    break;
  401356:	e06f      	b.n	401438 <SystemCoreClockUpdate+0x110>
      {
        SystemCoreClock = CHIP_FREQ_XTAL_32K;
      }
      else
      {
        SystemCoreClock = CHIP_FREQ_SLCK_RC;
  401358:	4b49      	ldr	r3, [pc, #292]	; (401480 <SystemCoreClockUpdate+0x158>)
  40135a:	f44f 42fa 	mov.w	r2, #32000	; 0x7d00
  40135e:	601a      	str	r2, [r3, #0]
      }
    break;
  401360:	e06a      	b.n	401438 <SystemCoreClockUpdate+0x110>

    case PMC_MCKR_CSS_MAIN_CLK: /* Main clock */
      if ( PMC->CKGR_MOR & CKGR_MOR_MOSCSEL )
  401362:	4b45      	ldr	r3, [pc, #276]	; (401478 <SystemCoreClockUpdate+0x150>)
  401364:	6a1b      	ldr	r3, [r3, #32]
  401366:	f003 7380 	and.w	r3, r3, #16777216	; 0x1000000
  40136a:	2b00      	cmp	r3, #0
  40136c:	d003      	beq.n	401376 <SystemCoreClockUpdate+0x4e>
      {
        SystemCoreClock = CHIP_FREQ_XTAL_12M;
  40136e:	4b44      	ldr	r3, [pc, #272]	; (401480 <SystemCoreClockUpdate+0x158>)
  401370:	4a44      	ldr	r2, [pc, #272]	; (401484 <SystemCoreClockUpdate+0x15c>)
  401372:	601a      	str	r2, [r3, #0]

          default:
          break;
        }
      }
    break;
  401374:	e060      	b.n	401438 <SystemCoreClockUpdate+0x110>
      {
        SystemCoreClock = CHIP_FREQ_XTAL_12M;
      }
      else
      {
        SystemCoreClock = CHIP_FREQ_MAINCK_RC_4MHZ;
  401376:	4b42      	ldr	r3, [pc, #264]	; (401480 <SystemCoreClockUpdate+0x158>)
  401378:	4a43      	ldr	r2, [pc, #268]	; (401488 <SystemCoreClockUpdate+0x160>)
  40137a:	601a      	str	r2, [r3, #0]

        switch ( PMC->CKGR_MOR & CKGR_MOR_MOSCRCF_Msk )
  40137c:	4b3e      	ldr	r3, [pc, #248]	; (401478 <SystemCoreClockUpdate+0x150>)
  40137e:	6a1b      	ldr	r3, [r3, #32]
  401380:	f003 0370 	and.w	r3, r3, #112	; 0x70
  401384:	2b10      	cmp	r3, #16
  401386:	d004      	beq.n	401392 <SystemCoreClockUpdate+0x6a>
  401388:	2b20      	cmp	r3, #32
  40138a:	d008      	beq.n	40139e <SystemCoreClockUpdate+0x76>
  40138c:	2b00      	cmp	r3, #0
  40138e:	d00e      	beq.n	4013ae <SystemCoreClockUpdate+0x86>
          case CKGR_MOR_MOSCRCF_12_MHz:
            SystemCoreClock *= 3U;
          break;

          default:
          break;
  401390:	e00e      	b.n	4013b0 <SystemCoreClockUpdate+0x88>
        {
          case CKGR_MOR_MOSCRCF_4_MHz:
          break;

          case CKGR_MOR_MOSCRCF_8_MHz:
            SystemCoreClock *= 2U;
  401392:	4b3b      	ldr	r3, [pc, #236]	; (401480 <SystemCoreClockUpdate+0x158>)
  401394:	681b      	ldr	r3, [r3, #0]
  401396:	005b      	lsls	r3, r3, #1
  401398:	4a39      	ldr	r2, [pc, #228]	; (401480 <SystemCoreClockUpdate+0x158>)
  40139a:	6013      	str	r3, [r2, #0]
          break;
  40139c:	e008      	b.n	4013b0 <SystemCoreClockUpdate+0x88>

          case CKGR_MOR_MOSCRCF_12_MHz:
            SystemCoreClock *= 3U;
  40139e:	4b38      	ldr	r3, [pc, #224]	; (401480 <SystemCoreClockUpdate+0x158>)
  4013a0:	681a      	ldr	r2, [r3, #0]
  4013a2:	4613      	mov	r3, r2
  4013a4:	005b      	lsls	r3, r3, #1
  4013a6:	4413      	add	r3, r2
  4013a8:	4a35      	ldr	r2, [pc, #212]	; (401480 <SystemCoreClockUpdate+0x158>)
  4013aa:	6013      	str	r3, [r2, #0]
          break;
  4013ac:	e000      	b.n	4013b0 <SystemCoreClockUpdate+0x88>
        SystemCoreClock = CHIP_FREQ_MAINCK_RC_4MHZ;

        switch ( PMC->CKGR_MOR & CKGR_MOR_MOSCRCF_Msk )
        {
          case CKGR_MOR_MOSCRCF_4_MHz:
          break;
  4013ae:	bf00      	nop

          default:
          break;
        }
      }
    break;
  4013b0:	e042      	b.n	401438 <SystemCoreClockUpdate+0x110>

    case PMC_MCKR_CSS_PLLA_CLK:	/* PLLA clock */
      if ( PMC->CKGR_MOR & CKGR_MOR_MOSCSEL )
  4013b2:	4b31      	ldr	r3, [pc, #196]	; (401478 <SystemCoreClockUpdate+0x150>)
  4013b4:	6a1b      	ldr	r3, [r3, #32]
  4013b6:	f003 7380 	and.w	r3, r3, #16777216	; 0x1000000
  4013ba:	2b00      	cmp	r3, #0
  4013bc:	d003      	beq.n	4013c6 <SystemCoreClockUpdate+0x9e>
      {
        SystemCoreClock = CHIP_FREQ_XTAL_12M ;
  4013be:	4b30      	ldr	r3, [pc, #192]	; (401480 <SystemCoreClockUpdate+0x158>)
  4013c0:	4a30      	ldr	r2, [pc, #192]	; (401484 <SystemCoreClockUpdate+0x15c>)
  4013c2:	601a      	str	r2, [r3, #0]
  4013c4:	e01c      	b.n	401400 <SystemCoreClockUpdate+0xd8>
      }
      else
      {
        SystemCoreClock = CHIP_FREQ_MAINCK_RC_4MHZ;
  4013c6:	4b2e      	ldr	r3, [pc, #184]	; (401480 <SystemCoreClockUpdate+0x158>)
  4013c8:	4a2f      	ldr	r2, [pc, #188]	; (401488 <SystemCoreClockUpdate+0x160>)
  4013ca:	601a      	str	r2, [r3, #0]

        switch ( PMC->CKGR_MOR & CKGR_MOR_MOSCRCF_Msk )
  4013cc:	4b2a      	ldr	r3, [pc, #168]	; (401478 <SystemCoreClockUpdate+0x150>)
  4013ce:	6a1b      	ldr	r3, [r3, #32]
  4013d0:	f003 0370 	and.w	r3, r3, #112	; 0x70
  4013d4:	2b10      	cmp	r3, #16
  4013d6:	d004      	beq.n	4013e2 <SystemCoreClockUpdate+0xba>
  4013d8:	2b20      	cmp	r3, #32
  4013da:	d008      	beq.n	4013ee <SystemCoreClockUpdate+0xc6>
  4013dc:	2b00      	cmp	r3, #0
  4013de:	d00e      	beq.n	4013fe <SystemCoreClockUpdate+0xd6>
          case CKGR_MOR_MOSCRCF_12_MHz:
            SystemCoreClock *= 3U;
          break;

          default:
          break;
  4013e0:	e00e      	b.n	401400 <SystemCoreClockUpdate+0xd8>
        {
          case CKGR_MOR_MOSCRCF_4_MHz:
          break;

          case CKGR_MOR_MOSCRCF_8_MHz:
            SystemCoreClock *= 2U;
  4013e2:	4b27      	ldr	r3, [pc, #156]	; (401480 <SystemCoreClockUpdate+0x158>)
  4013e4:	681b      	ldr	r3, [r3, #0]
  4013e6:	005b      	lsls	r3, r3, #1
  4013e8:	4a25      	ldr	r2, [pc, #148]	; (401480 <SystemCoreClockUpdate+0x158>)
  4013ea:	6013      	str	r3, [r2, #0]
          break;
  4013ec:	e008      	b.n	401400 <SystemCoreClockUpdate+0xd8>

          case CKGR_MOR_MOSCRCF_12_MHz:
            SystemCoreClock *= 3U;
  4013ee:	4b24      	ldr	r3, [pc, #144]	; (401480 <SystemCoreClockUpdate+0x158>)
  4013f0:	681a      	ldr	r2, [r3, #0]
  4013f2:	4613      	mov	r3, r2
  4013f4:	005b      	lsls	r3, r3, #1
  4013f6:	4413      	add	r3, r2
  4013f8:	4a21      	ldr	r2, [pc, #132]	; (401480 <SystemCoreClockUpdate+0x158>)
  4013fa:	6013      	str	r3, [r2, #0]
          break;
  4013fc:	e000      	b.n	401400 <SystemCoreClockUpdate+0xd8>
        SystemCoreClock = CHIP_FREQ_MAINCK_RC_4MHZ;

        switch ( PMC->CKGR_MOR & CKGR_MOR_MOSCRCF_Msk )
        {
          case CKGR_MOR_MOSCRCF_4_MHz:
          break;
  4013fe:	bf00      	nop
          default:
          break;
        }
      }

      if ( (uint32_t) (PMC->PMC_MCKR & (uint32_t) PMC_MCKR_CSS_Msk) == PMC_MCKR_CSS_PLLA_CLK )
  401400:	4b1d      	ldr	r3, [pc, #116]	; (401478 <SystemCoreClockUpdate+0x150>)
  401402:	6b1b      	ldr	r3, [r3, #48]	; 0x30
  401404:	f003 0303 	and.w	r3, r3, #3
  401408:	2b02      	cmp	r3, #2
  40140a:	d114      	bne.n	401436 <SystemCoreClockUpdate+0x10e>
      {
        SystemCoreClock *= ((((PMC->CKGR_PLLAR) & CKGR_PLLAR_MULA_Msk) >> CKGR_PLLAR_MULA_Pos) + 1U);
  40140c:	4b1a      	ldr	r3, [pc, #104]	; (401478 <SystemCoreClockUpdate+0x150>)
  40140e:	6a9a      	ldr	r2, [r3, #40]	; 0x28
  401410:	4b1e      	ldr	r3, [pc, #120]	; (40148c <SystemCoreClockUpdate+0x164>)
  401412:	4013      	ands	r3, r2
  401414:	0c1b      	lsrs	r3, r3, #16
  401416:	3301      	adds	r3, #1
  401418:	4a19      	ldr	r2, [pc, #100]	; (401480 <SystemCoreClockUpdate+0x158>)
  40141a:	6812      	ldr	r2, [r2, #0]
  40141c:	fb02 f303 	mul.w	r3, r2, r3
  401420:	4a17      	ldr	r2, [pc, #92]	; (401480 <SystemCoreClockUpdate+0x158>)
  401422:	6013      	str	r3, [r2, #0]
        SystemCoreClock /= ((((PMC->CKGR_PLLAR) & CKGR_PLLAR_DIVA_Msk) >> CKGR_PLLAR_DIVA_Pos));
  401424:	4b14      	ldr	r3, [pc, #80]	; (401478 <SystemCoreClockUpdate+0x150>)
  401426:	6a9b      	ldr	r3, [r3, #40]	; 0x28
  401428:	b2db      	uxtb	r3, r3
  40142a:	4a15      	ldr	r2, [pc, #84]	; (401480 <SystemCoreClockUpdate+0x158>)
  40142c:	6812      	ldr	r2, [r2, #0]
  40142e:	fbb2 f3f3 	udiv	r3, r2, r3
  401432:	4a13      	ldr	r2, [pc, #76]	; (401480 <SystemCoreClockUpdate+0x158>)
  401434:	6013      	str	r3, [r2, #0]
      }
    break;
  401436:	bf00      	nop

    default:
    break;
  }

  if ( (PMC->PMC_MCKR & PMC_MCKR_PRES_Msk) == PMC_MCKR_PRES_CLK_3 )
  401438:	4b0f      	ldr	r3, [pc, #60]	; (401478 <SystemCoreClockUpdate+0x150>)
  40143a:	6b1b      	ldr	r3, [r3, #48]	; 0x30
  40143c:	f003 0370 	and.w	r3, r3, #112	; 0x70
  401440:	2b70      	cmp	r3, #112	; 0x70
  401442:	d108      	bne.n	401456 <SystemCoreClockUpdate+0x12e>
  {
    SystemCoreClock /= 3U;
  401444:	4b0e      	ldr	r3, [pc, #56]	; (401480 <SystemCoreClockUpdate+0x158>)
  401446:	681b      	ldr	r3, [r3, #0]
  401448:	4a11      	ldr	r2, [pc, #68]	; (401490 <SystemCoreClockUpdate+0x168>)
  40144a:	fba2 2303 	umull	r2, r3, r2, r3
  40144e:	085b      	lsrs	r3, r3, #1
  401450:	4a0b      	ldr	r2, [pc, #44]	; (401480 <SystemCoreClockUpdate+0x158>)
  401452:	6013      	str	r3, [r2, #0]
  }
  else
  {
    SystemCoreClock >>= ((PMC->PMC_MCKR & PMC_MCKR_PRES_Msk) >> PMC_MCKR_PRES_Pos);
  }
}
  401454:	e00a      	b.n	40146c <SystemCoreClockUpdate+0x144>
  {
    SystemCoreClock /= 3U;
  }
  else
  {
    SystemCoreClock >>= ((PMC->PMC_MCKR & PMC_MCKR_PRES_Msk) >> PMC_MCKR_PRES_Pos);
  401456:	4b08      	ldr	r3, [pc, #32]	; (401478 <SystemCoreClockUpdate+0x150>)
  401458:	6b1b      	ldr	r3, [r3, #48]	; 0x30
  40145a:	f003 0370 	and.w	r3, r3, #112	; 0x70
  40145e:	091b      	lsrs	r3, r3, #4
  401460:	4a07      	ldr	r2, [pc, #28]	; (401480 <SystemCoreClockUpdate+0x158>)
  401462:	6812      	ldr	r2, [r2, #0]
  401464:	fa22 f303 	lsr.w	r3, r2, r3
  401468:	4a05      	ldr	r2, [pc, #20]	; (401480 <SystemCoreClockUpdate+0x158>)
  40146a:	6013      	str	r3, [r2, #0]
  }
}
  40146c:	bf00      	nop
  40146e:	46bd      	mov	sp, r7
  401470:	f85d 7b04 	ldr.w	r7, [sp], #4
  401474:	4770      	bx	lr
  401476:	bf00      	nop
  401478:	400e0600 	.word	0x400e0600
  40147c:	400e1810 	.word	0x400e1810
  401480:	20400004 	.word	0x20400004
  401484:	00b71b00 	.word	0x00b71b00
  401488:	003d0900 	.word	0x003d0900
  40148c:	07ff0000 	.word	0x07ff0000
  401490:	aaaaaaab 	.word	0xaaaaaaab

00401494 <system_init_flash>:
/**
 * Initialize flash.
 */
void system_init_flash( uint32_t ul_clk )
{
  401494:	b480      	push	{r7}
  401496:	b083      	sub	sp, #12
  401498:	af00      	add	r7, sp, #0
  40149a:	6078      	str	r0, [r7, #4]
  /* Set FWS for embedded Flash access according to operating frequency */
  if ( ul_clk < CHIP_FREQ_FWS_0 )
  40149c:	687b      	ldr	r3, [r7, #4]
  40149e:	4a19      	ldr	r2, [pc, #100]	; (401504 <system_init_flash+0x70>)
  4014a0:	4293      	cmp	r3, r2
  4014a2:	d804      	bhi.n	4014ae <system_init_flash+0x1a>
  {
    EFC->EEFC_FMR = EEFC_FMR_FWS(0)|EEFC_FMR_CLOE;
  4014a4:	4b18      	ldr	r3, [pc, #96]	; (401508 <system_init_flash+0x74>)
  4014a6:	f04f 6280 	mov.w	r2, #67108864	; 0x4000000
  4014aa:	601a      	str	r2, [r3, #0]
          }
        }
      }
    }
  }
}
  4014ac:	e023      	b.n	4014f6 <system_init_flash+0x62>
  {
    EFC->EEFC_FMR = EEFC_FMR_FWS(0)|EEFC_FMR_CLOE;
  }
  else
  {
    if (ul_clk < CHIP_FREQ_FWS_1)
  4014ae:	687b      	ldr	r3, [r7, #4]
  4014b0:	4a16      	ldr	r2, [pc, #88]	; (40150c <system_init_flash+0x78>)
  4014b2:	4293      	cmp	r3, r2
  4014b4:	d803      	bhi.n	4014be <system_init_flash+0x2a>
    {
      EFC->EEFC_FMR = EEFC_FMR_FWS(1)|EEFC_FMR_CLOE;
  4014b6:	4b14      	ldr	r3, [pc, #80]	; (401508 <system_init_flash+0x74>)
  4014b8:	4a15      	ldr	r2, [pc, #84]	; (401510 <system_init_flash+0x7c>)
  4014ba:	601a      	str	r2, [r3, #0]
          }
        }
      }
    }
  }
}
  4014bc:	e01b      	b.n	4014f6 <system_init_flash+0x62>
    {
      EFC->EEFC_FMR = EEFC_FMR_FWS(1)|EEFC_FMR_CLOE;
    }
    else
    {
      if (ul_clk < CHIP_FREQ_FWS_2)
  4014be:	687b      	ldr	r3, [r7, #4]
  4014c0:	4a14      	ldr	r2, [pc, #80]	; (401514 <system_init_flash+0x80>)
  4014c2:	4293      	cmp	r3, r2
  4014c4:	d803      	bhi.n	4014ce <system_init_flash+0x3a>
      {
        EFC->EEFC_FMR = EEFC_FMR_FWS(2)|EEFC_FMR_CLOE;
  4014c6:	4b10      	ldr	r3, [pc, #64]	; (401508 <system_init_flash+0x74>)
  4014c8:	4a13      	ldr	r2, [pc, #76]	; (401518 <system_init_flash+0x84>)
  4014ca:	601a      	str	r2, [r3, #0]
          }
        }
      }
    }
  }
}
  4014cc:	e013      	b.n	4014f6 <system_init_flash+0x62>
      {
        EFC->EEFC_FMR = EEFC_FMR_FWS(2)|EEFC_FMR_CLOE;
      }
      else
      {
        if ( ul_clk < CHIP_FREQ_FWS_3 )
  4014ce:	687b      	ldr	r3, [r7, #4]
  4014d0:	4a12      	ldr	r2, [pc, #72]	; (40151c <system_init_flash+0x88>)
  4014d2:	4293      	cmp	r3, r2
  4014d4:	d803      	bhi.n	4014de <system_init_flash+0x4a>
        {
          EFC->EEFC_FMR = EEFC_FMR_FWS(3)|EEFC_FMR_CLOE;
  4014d6:	4b0c      	ldr	r3, [pc, #48]	; (401508 <system_init_flash+0x74>)
  4014d8:	4a11      	ldr	r2, [pc, #68]	; (401520 <system_init_flash+0x8c>)
  4014da:	601a      	str	r2, [r3, #0]
          }
        }
      }
    }
  }
}
  4014dc:	e00b      	b.n	4014f6 <system_init_flash+0x62>
        {
          EFC->EEFC_FMR = EEFC_FMR_FWS(3)|EEFC_FMR_CLOE;
        }
        else
        {
          if ( ul_clk < CHIP_FREQ_FWS_4 )
  4014de:	687b      	ldr	r3, [r7, #4]
  4014e0:	4a10      	ldr	r2, [pc, #64]	; (401524 <system_init_flash+0x90>)
  4014e2:	4293      	cmp	r3, r2
  4014e4:	d804      	bhi.n	4014f0 <system_init_flash+0x5c>
          {
            EFC->EEFC_FMR = EEFC_FMR_FWS(4)|EEFC_FMR_CLOE;
  4014e6:	4b08      	ldr	r3, [pc, #32]	; (401508 <system_init_flash+0x74>)
  4014e8:	f04f 2204 	mov.w	r2, #67109888	; 0x4000400
  4014ec:	601a      	str	r2, [r3, #0]
          }
        }
      }
    }
  }
}
  4014ee:	e002      	b.n	4014f6 <system_init_flash+0x62>
          {
            EFC->EEFC_FMR = EEFC_FMR_FWS(4)|EEFC_FMR_CLOE;
          }
          else
          {
            EFC->EEFC_FMR = EEFC_FMR_FWS(5)|EEFC_FMR_CLOE;
  4014f0:	4b05      	ldr	r3, [pc, #20]	; (401508 <system_init_flash+0x74>)
  4014f2:	4a0d      	ldr	r2, [pc, #52]	; (401528 <system_init_flash+0x94>)
  4014f4:	601a      	str	r2, [r3, #0]
          }
        }
      }
    }
  }
}
  4014f6:	bf00      	nop
  4014f8:	370c      	adds	r7, #12
  4014fa:	46bd      	mov	sp, r7
  4014fc:	f85d 7b04 	ldr.w	r7, [sp], #4
  401500:	4770      	bx	lr
  401502:	bf00      	nop
  401504:	01312cff 	.word	0x01312cff
  401508:	400e0c00 	.word	0x400e0c00
  40150c:	026259ff 	.word	0x026259ff
  401510:	04000100 	.word	0x04000100
  401514:	039386ff 	.word	0x039386ff
  401518:	04000200 	.word	0x04000200
  40151c:	04c4b3ff 	.word	0x04c4b3ff
  401520:	04000300 	.word	0x04000300
  401524:	05f5e0ff 	.word	0x05f5e0ff
  401528:	04000500 	.word	0x04000500

0040152c <_sbrk>:
extern void _exit(int status);
extern void _kill(int pid, int sig);
extern int _getpid(void);

extern caddr_t _sbrk(int incr)
{
  40152c:	b480      	push	{r7}
  40152e:	b085      	sub	sp, #20
  401530:	af00      	add	r7, sp, #0
  401532:	6078      	str	r0, [r7, #4]
	static unsigned char *heap = NULL;
	unsigned char *prev_heap;
	int ramend = (int)&__ram_end__;
  401534:	4b10      	ldr	r3, [pc, #64]	; (401578 <_sbrk+0x4c>)
  401536:	60fb      	str	r3, [r7, #12]

	if (heap == NULL) {
  401538:	4b10      	ldr	r3, [pc, #64]	; (40157c <_sbrk+0x50>)
  40153a:	681b      	ldr	r3, [r3, #0]
  40153c:	2b00      	cmp	r3, #0
  40153e:	d102      	bne.n	401546 <_sbrk+0x1a>
		heap = (unsigned char *)&_end;
  401540:	4b0e      	ldr	r3, [pc, #56]	; (40157c <_sbrk+0x50>)
  401542:	4a0f      	ldr	r2, [pc, #60]	; (401580 <_sbrk+0x54>)
  401544:	601a      	str	r2, [r3, #0]
	}
	prev_heap = heap;
  401546:	4b0d      	ldr	r3, [pc, #52]	; (40157c <_sbrk+0x50>)
  401548:	681b      	ldr	r3, [r3, #0]
  40154a:	60bb      	str	r3, [r7, #8]

	if (((int)prev_heap + incr) > ramend) {
  40154c:	68ba      	ldr	r2, [r7, #8]
  40154e:	687b      	ldr	r3, [r7, #4]
  401550:	441a      	add	r2, r3
  401552:	68fb      	ldr	r3, [r7, #12]
  401554:	429a      	cmp	r2, r3
  401556:	dd02      	ble.n	40155e <_sbrk+0x32>
		return (caddr_t) -1;	
  401558:	f04f 33ff 	mov.w	r3, #4294967295
  40155c:	e006      	b.n	40156c <_sbrk+0x40>
	}

	heap += incr;
  40155e:	4b07      	ldr	r3, [pc, #28]	; (40157c <_sbrk+0x50>)
  401560:	681a      	ldr	r2, [r3, #0]
  401562:	687b      	ldr	r3, [r7, #4]
  401564:	4413      	add	r3, r2
  401566:	4a05      	ldr	r2, [pc, #20]	; (40157c <_sbrk+0x50>)
  401568:	6013      	str	r3, [r2, #0]

	return (caddr_t) prev_heap;
  40156a:	68bb      	ldr	r3, [r7, #8]
}
  40156c:	4618      	mov	r0, r3
  40156e:	3714      	adds	r7, #20
  401570:	46bd      	mov	sp, r7
  401572:	f85d 7b04 	ldr.w	r7, [sp], #4
  401576:	4770      	bx	lr
  401578:	2045fffc 	.word	0x2045fffc
  40157c:	204008d4 	.word	0x204008d4
  401580:	20402b20 	.word	0x20402b20

00401584 <_close>:
{
	return -1;
}

extern int _close(int file)
{
  401584:	b480      	push	{r7}
  401586:	b083      	sub	sp, #12
  401588:	af00      	add	r7, sp, #0
  40158a:	6078      	str	r0, [r7, #4]
	return -1;
  40158c:	f04f 33ff 	mov.w	r3, #4294967295
}
  401590:	4618      	mov	r0, r3
  401592:	370c      	adds	r7, #12
  401594:	46bd      	mov	sp, r7
  401596:	f85d 7b04 	ldr.w	r7, [sp], #4
  40159a:	4770      	bx	lr

0040159c <_fstat>:

extern int _fstat(int file, struct stat *st)
{
  40159c:	b480      	push	{r7}
  40159e:	b083      	sub	sp, #12
  4015a0:	af00      	add	r7, sp, #0
  4015a2:	6078      	str	r0, [r7, #4]
  4015a4:	6039      	str	r1, [r7, #0]
	st->st_mode = S_IFCHR;
  4015a6:	683b      	ldr	r3, [r7, #0]
  4015a8:	f44f 5200 	mov.w	r2, #8192	; 0x2000
  4015ac:	605a      	str	r2, [r3, #4]

	return 0;
  4015ae:	2300      	movs	r3, #0
}
  4015b0:	4618      	mov	r0, r3
  4015b2:	370c      	adds	r7, #12
  4015b4:	46bd      	mov	sp, r7
  4015b6:	f85d 7b04 	ldr.w	r7, [sp], #4
  4015ba:	4770      	bx	lr

004015bc <_lseek>:
{
	return 1;
}

extern int _lseek(int file, int ptr, int dir)
{
  4015bc:	b480      	push	{r7}
  4015be:	b085      	sub	sp, #20
  4015c0:	af00      	add	r7, sp, #0
  4015c2:	60f8      	str	r0, [r7, #12]
  4015c4:	60b9      	str	r1, [r7, #8]
  4015c6:	607a      	str	r2, [r7, #4]
	return 0;
  4015c8:	2300      	movs	r3, #0
}
  4015ca:	4618      	mov	r0, r3
  4015cc:	3714      	adds	r7, #20
  4015ce:	46bd      	mov	sp, r7
  4015d0:	f85d 7b04 	ldr.w	r7, [sp], #4
  4015d4:	4770      	bx	lr
  4015d6:	bf00      	nop

004015d8 <NVIC_EnableIRQ>:
    The function enables a device-specific interrupt in the NVIC interrupt controller.

    \param [in]      IRQn  External interrupt number. Value cannot be negative.
 */
__STATIC_INLINE void NVIC_EnableIRQ(IRQn_Type IRQn)
{
  4015d8:	b480      	push	{r7}
  4015da:	b083      	sub	sp, #12
  4015dc:	af00      	add	r7, sp, #0
  4015de:	4603      	mov	r3, r0
  4015e0:	71fb      	strb	r3, [r7, #7]
/*  NVIC->ISER[((uint32_t)(IRQn) >> 5)] = (1 << ((uint32_t)(IRQn) & 0x1F));  enable interrupt */
  NVIC->ISER[(uint32_t)((int32_t)IRQn) >> 5] = (uint32_t)(1 << ((uint32_t)((int32_t)IRQn) & (uint32_t)0x1F)); /* enable interrupt */
  4015e2:	4909      	ldr	r1, [pc, #36]	; (401608 <NVIC_EnableIRQ+0x30>)
  4015e4:	f997 3007 	ldrsb.w	r3, [r7, #7]
  4015e8:	095b      	lsrs	r3, r3, #5
  4015ea:	79fa      	ldrb	r2, [r7, #7]
  4015ec:	f002 021f 	and.w	r2, r2, #31
  4015f0:	2001      	movs	r0, #1
  4015f2:	fa00 f202 	lsl.w	r2, r0, r2
  4015f6:	f841 2023 	str.w	r2, [r1, r3, lsl #2]
}
  4015fa:	bf00      	nop
  4015fc:	370c      	adds	r7, #12
  4015fe:	46bd      	mov	sp, r7
  401600:	f85d 7b04 	ldr.w	r7, [sp], #4
  401604:	4770      	bx	lr
  401606:	bf00      	nop
  401608:	e000e100 	.word	0xe000e100

0040160c <osc_get_rate>:

	return 0;
}

static inline uint32_t osc_get_rate(uint32_t ul_id)
{
  40160c:	b480      	push	{r7}
  40160e:	b083      	sub	sp, #12
  401610:	af00      	add	r7, sp, #0
  401612:	6078      	str	r0, [r7, #4]
	switch (ul_id) {
  401614:	687b      	ldr	r3, [r7, #4]
  401616:	2b07      	cmp	r3, #7
  401618:	d825      	bhi.n	401666 <osc_get_rate+0x5a>
  40161a:	a201      	add	r2, pc, #4	; (adr r2, 401620 <osc_get_rate+0x14>)
  40161c:	f852 f023 	ldr.w	pc, [r2, r3, lsl #2]
  401620:	00401641 	.word	0x00401641
  401624:	00401647 	.word	0x00401647
  401628:	0040164d 	.word	0x0040164d
  40162c:	00401653 	.word	0x00401653
  401630:	00401657 	.word	0x00401657
  401634:	0040165b 	.word	0x0040165b
  401638:	0040165f 	.word	0x0040165f
  40163c:	00401663 	.word	0x00401663
	case OSC_SLCK_32K_RC:
		return OSC_SLCK_32K_RC_HZ;
  401640:	f44f 43fa 	mov.w	r3, #32000	; 0x7d00
  401644:	e010      	b.n	401668 <osc_get_rate+0x5c>

	case OSC_SLCK_32K_XTAL:
		return BOARD_FREQ_SLCK_XTAL;
  401646:	f44f 4300 	mov.w	r3, #32768	; 0x8000
  40164a:	e00d      	b.n	401668 <osc_get_rate+0x5c>

	case OSC_SLCK_32K_BYPASS:
		return BOARD_FREQ_SLCK_BYPASS;
  40164c:	f44f 4300 	mov.w	r3, #32768	; 0x8000
  401650:	e00a      	b.n	401668 <osc_get_rate+0x5c>

	case OSC_MAINCK_4M_RC:
		return OSC_MAINCK_4M_RC_HZ;
  401652:	4b08      	ldr	r3, [pc, #32]	; (401674 <osc_get_rate+0x68>)
  401654:	e008      	b.n	401668 <osc_get_rate+0x5c>

	case OSC_MAINCK_8M_RC:
		return OSC_MAINCK_8M_RC_HZ;
  401656:	4b08      	ldr	r3, [pc, #32]	; (401678 <osc_get_rate+0x6c>)
  401658:	e006      	b.n	401668 <osc_get_rate+0x5c>

	case OSC_MAINCK_12M_RC:
		return OSC_MAINCK_12M_RC_HZ;
  40165a:	4b08      	ldr	r3, [pc, #32]	; (40167c <osc_get_rate+0x70>)
  40165c:	e004      	b.n	401668 <osc_get_rate+0x5c>

	case OSC_MAINCK_XTAL:
		return BOARD_FREQ_MAINCK_XTAL;
  40165e:	4b07      	ldr	r3, [pc, #28]	; (40167c <osc_get_rate+0x70>)
  401660:	e002      	b.n	401668 <osc_get_rate+0x5c>

	case OSC_MAINCK_BYPASS:
		return BOARD_FREQ_MAINCK_BYPASS;
  401662:	4b06      	ldr	r3, [pc, #24]	; (40167c <osc_get_rate+0x70>)
  401664:	e000      	b.n	401668 <osc_get_rate+0x5c>
	}

	return 0;
  401666:	2300      	movs	r3, #0
}
  401668:	4618      	mov	r0, r3
  40166a:	370c      	adds	r7, #12
  40166c:	46bd      	mov	sp, r7
  40166e:	f85d 7b04 	ldr.w	r7, [sp], #4
  401672:	4770      	bx	lr
  401674:	003d0900 	.word	0x003d0900
  401678:	007a1200 	.word	0x007a1200
  40167c:	00b71b00 	.word	0x00b71b00

00401680 <sysclk_get_main_hz>:
 */
#if (defined CONFIG_SYSCLK_DEFAULT_RETURNS_SLOW_OSC)
extern uint32_t sysclk_initialized;
#endif
static inline uint32_t sysclk_get_main_hz(void)
{
  401680:	b580      	push	{r7, lr}
  401682:	af00      	add	r7, sp, #0
	} else if (CONFIG_SYSCLK_SOURCE == SYSCLK_SRC_MAINCK_BYPASS) {
		return OSC_MAINCK_BYPASS_HZ;
	}
#ifdef CONFIG_PLL0_SOURCE
	else if (CONFIG_SYSCLK_SOURCE == SYSCLK_SRC_PLLACK) {
		return pll_get_default_rate(0);
  401684:	2006      	movs	r0, #6
  401686:	4b05      	ldr	r3, [pc, #20]	; (40169c <sysclk_get_main_hz+0x1c>)
  401688:	4798      	blx	r3
  40168a:	4602      	mov	r2, r0
  40168c:	4613      	mov	r3, r2
  40168e:	009b      	lsls	r3, r3, #2
  401690:	4413      	add	r3, r2
  401692:	009a      	lsls	r2, r3, #2
  401694:	4413      	add	r3, r2
#endif
	else {
		/* unhandled_case(CONFIG_SYSCLK_SOURCE); */
		return 0;
	}
}
  401696:	4618      	mov	r0, r3
  401698:	bd80      	pop	{r7, pc}
  40169a:	bf00      	nop
  40169c:	0040160d 	.word	0x0040160d

004016a0 <sysclk_get_cpu_hz>:
 * clocks.
 *
 * \return Frequency of the CPU clock, in Hz.
 */
static inline uint32_t sysclk_get_cpu_hz(void)
{
  4016a0:	b580      	push	{r7, lr}
  4016a2:	af00      	add	r7, sp, #0
	/* CONFIG_SYSCLK_PRES is the register value for setting the expected */
	/* prescaler, not an immediate value. */
	return sysclk_get_main_hz() /
  4016a4:	4b02      	ldr	r3, [pc, #8]	; (4016b0 <sysclk_get_cpu_hz+0x10>)
  4016a6:	4798      	blx	r3
  4016a8:	4603      	mov	r3, r0
  4016aa:	099b      	lsrs	r3, r3, #6
		((CONFIG_SYSCLK_PRES == SYSCLK_PRES_3) ? 3 :
			(1 << (CONFIG_SYSCLK_PRES >> PMC_MCKR_PRES_Pos)));
}
  4016ac:	4618      	mov	r0, r3
  4016ae:	bd80      	pop	{r7, pc}
  4016b0:	00401681 	.word	0x00401681

004016b4 <sysclk_get_peripheral_hz>:
 * \brief Retrieves the current rate in Hz of the peripheral clocks.
 *
 * \return Frequency of the peripheral clocks, in Hz.
 */
static inline uint32_t sysclk_get_peripheral_hz(void)
{
  4016b4:	b580      	push	{r7, lr}
  4016b6:	af00      	add	r7, sp, #0
	/* CONFIG_SYSCLK_PRES is the register value for setting the expected */
	/* prescaler, not an immediate value. */
	return sysclk_get_main_hz() /
  4016b8:	4b02      	ldr	r3, [pc, #8]	; (4016c4 <sysclk_get_peripheral_hz+0x10>)
  4016ba:	4798      	blx	r3
  4016bc:	4603      	mov	r3, r0
  4016be:	09db      	lsrs	r3, r3, #7
		(((CONFIG_SYSCLK_PRES == SYSCLK_PRES_3) ? 3 : (1 << (CONFIG_SYSCLK_PRES >> PMC_MCKR_PRES_Pos))) * CONFIG_SYSCLK_DIV);
}
  4016c0:	4618      	mov	r0, r3
  4016c2:	bd80      	pop	{r7, pc}
  4016c4:	00401681 	.word	0x00401681

004016c8 <sysclk_enable_peripheral_clock>:
 * \brief Enable a peripheral's clock.
 *
 * \param ul_id Id (number) of the peripheral clock.
 */
static inline void sysclk_enable_peripheral_clock(uint32_t ul_id)
{
  4016c8:	b580      	push	{r7, lr}
  4016ca:	b082      	sub	sp, #8
  4016cc:	af00      	add	r7, sp, #0
  4016ce:	6078      	str	r0, [r7, #4]
	pmc_enable_periph_clk(ul_id);
  4016d0:	6878      	ldr	r0, [r7, #4]
  4016d2:	4b03      	ldr	r3, [pc, #12]	; (4016e0 <sysclk_enable_peripheral_clock+0x18>)
  4016d4:	4798      	blx	r3
}
  4016d6:	bf00      	nop
  4016d8:	3708      	adds	r7, #8
  4016da:	46bd      	mov	sp, r7
  4016dc:	bd80      	pop	{r7, pc}
  4016de:	bf00      	nop
  4016e0:	00400c15 	.word	0x00400c15

004016e4 <usart_serial_init>:
 * \param opt      Options needed to set up RS232 communication (see
 * \ref usart_options_t).
 */
static inline void usart_serial_init(usart_if p_usart,
		usart_serial_options_t *opt)
{
  4016e4:	b580      	push	{r7, lr}
  4016e6:	b08c      	sub	sp, #48	; 0x30
  4016e8:	af00      	add	r7, sp, #0
  4016ea:	6078      	str	r0, [r7, #4]
  4016ec:	6039      	str	r1, [r7, #0]
#if ((!SAM4L) && (!SAMG55))
	sam_uart_opt_t uart_settings;
	uart_settings.ul_mck = sysclk_get_peripheral_hz();
  4016ee:	4b49      	ldr	r3, [pc, #292]	; (401814 <usart_serial_init+0x130>)
  4016f0:	4798      	blx	r3
  4016f2:	4603      	mov	r3, r0
  4016f4:	627b      	str	r3, [r7, #36]	; 0x24
	uart_settings.ul_baudrate = opt->baudrate;
  4016f6:	683b      	ldr	r3, [r7, #0]
  4016f8:	681b      	ldr	r3, [r3, #0]
  4016fa:	62bb      	str	r3, [r7, #40]	; 0x28
	uart_settings.ul_mode = opt->paritytype;
  4016fc:	683b      	ldr	r3, [r7, #0]
  4016fe:	689b      	ldr	r3, [r3, #8]
  401700:	62fb      	str	r3, [r7, #44]	; 0x2c
#endif

	sam_usart_opt_t usart_settings;
	usart_settings.baudrate = opt->baudrate;
  401702:	683b      	ldr	r3, [r7, #0]
  401704:	681b      	ldr	r3, [r3, #0]
  401706:	60fb      	str	r3, [r7, #12]
	usart_settings.char_length = opt->charlength;
  401708:	683b      	ldr	r3, [r7, #0]
  40170a:	685b      	ldr	r3, [r3, #4]
  40170c:	613b      	str	r3, [r7, #16]
	usart_settings.parity_type = opt->paritytype;
  40170e:	683b      	ldr	r3, [r7, #0]
  401710:	689b      	ldr	r3, [r3, #8]
  401712:	617b      	str	r3, [r7, #20]
	usart_settings.stop_bits= opt->stopbits;
  401714:	683b      	ldr	r3, [r7, #0]
  401716:	68db      	ldr	r3, [r3, #12]
  401718:	61bb      	str	r3, [r7, #24]
	usart_settings.channel_mode= US_MR_CHMODE_NORMAL;
  40171a:	2300      	movs	r3, #0
  40171c:	61fb      	str	r3, [r7, #28]
		/* Configure UART */
		uart_init((Uart*)p_usart, &uart_settings);
	}
#else
# ifdef UART0
	if (UART0 == (Uart*)p_usart) {
  40171e:	687b      	ldr	r3, [r7, #4]
  401720:	4a3d      	ldr	r2, [pc, #244]	; (401818 <usart_serial_init+0x134>)
  401722:	4293      	cmp	r3, r2
  401724:	d108      	bne.n	401738 <usart_serial_init+0x54>
		sysclk_enable_peripheral_clock(ID_UART0);
  401726:	2007      	movs	r0, #7
  401728:	4b3c      	ldr	r3, [pc, #240]	; (40181c <usart_serial_init+0x138>)
  40172a:	4798      	blx	r3
		/* Configure UART */
		uart_init((Uart*)p_usart, &uart_settings);
  40172c:	f107 0324 	add.w	r3, r7, #36	; 0x24
  401730:	4619      	mov	r1, r3
  401732:	6878      	ldr	r0, [r7, #4]
  401734:	4b3a      	ldr	r3, [pc, #232]	; (401820 <usart_serial_init+0x13c>)
  401736:	4798      	blx	r3
	}
# endif
# ifdef UART1
	if (UART1 == (Uart*)p_usart) {
  401738:	687b      	ldr	r3, [r7, #4]
  40173a:	4a3a      	ldr	r2, [pc, #232]	; (401824 <usart_serial_init+0x140>)
  40173c:	4293      	cmp	r3, r2
  40173e:	d108      	bne.n	401752 <usart_serial_init+0x6e>
		sysclk_enable_peripheral_clock(ID_UART1);
  401740:	2008      	movs	r0, #8
  401742:	4b36      	ldr	r3, [pc, #216]	; (40181c <usart_serial_init+0x138>)
  401744:	4798      	blx	r3
		/* Configure UART */
		uart_init((Uart*)p_usart, &uart_settings);
  401746:	f107 0324 	add.w	r3, r7, #36	; 0x24
  40174a:	4619      	mov	r1, r3
  40174c:	6878      	ldr	r0, [r7, #4]
  40174e:	4b34      	ldr	r3, [pc, #208]	; (401820 <usart_serial_init+0x13c>)
  401750:	4798      	blx	r3
	}
# endif
# ifdef UART2
	if (UART2 == (Uart*)p_usart) {
  401752:	687b      	ldr	r3, [r7, #4]
  401754:	4a34      	ldr	r2, [pc, #208]	; (401828 <usart_serial_init+0x144>)
  401756:	4293      	cmp	r3, r2
  401758:	d108      	bne.n	40176c <usart_serial_init+0x88>
		sysclk_enable_peripheral_clock(ID_UART2);
  40175a:	202c      	movs	r0, #44	; 0x2c
  40175c:	4b2f      	ldr	r3, [pc, #188]	; (40181c <usart_serial_init+0x138>)
  40175e:	4798      	blx	r3
		/* Configure UART */
		uart_init((Uart*)p_usart, &uart_settings);
  401760:	f107 0324 	add.w	r3, r7, #36	; 0x24
  401764:	4619      	mov	r1, r3
  401766:	6878      	ldr	r0, [r7, #4]
  401768:	4b2d      	ldr	r3, [pc, #180]	; (401820 <usart_serial_init+0x13c>)
  40176a:	4798      	blx	r3
	}
# endif
# ifdef UART3
	if (UART3 == (Uart*)p_usart) {
  40176c:	687b      	ldr	r3, [r7, #4]
  40176e:	4a2f      	ldr	r2, [pc, #188]	; (40182c <usart_serial_init+0x148>)
  401770:	4293      	cmp	r3, r2
  401772:	d108      	bne.n	401786 <usart_serial_init+0xa2>
		sysclk_enable_peripheral_clock(ID_UART3);
  401774:	202d      	movs	r0, #45	; 0x2d
  401776:	4b29      	ldr	r3, [pc, #164]	; (40181c <usart_serial_init+0x138>)
  401778:	4798      	blx	r3
		/* Configure UART */
		uart_init((Uart*)p_usart, &uart_settings);
  40177a:	f107 0324 	add.w	r3, r7, #36	; 0x24
  40177e:	4619      	mov	r1, r3
  401780:	6878      	ldr	r0, [r7, #4]
  401782:	4b27      	ldr	r3, [pc, #156]	; (401820 <usart_serial_init+0x13c>)
  401784:	4798      	blx	r3
		usart_enable_tx(p_usart);
		usart_enable_rx(p_usart);
	}
#else
# ifdef USART0
	if (USART0 == p_usart) {
  401786:	687b      	ldr	r3, [r7, #4]
  401788:	4a29      	ldr	r2, [pc, #164]	; (401830 <usart_serial_init+0x14c>)
  40178a:	4293      	cmp	r3, r2
  40178c:	d111      	bne.n	4017b2 <usart_serial_init+0xce>
#if (!SAM4L)
#if (SAMG55)
		flexcom_enable(FLEXCOM0);
		flexcom_set_opmode(FLEXCOM0, FLEXCOM_USART);
#else
		sysclk_enable_peripheral_clock(ID_USART0);
  40178e:	200d      	movs	r0, #13
  401790:	4b22      	ldr	r3, [pc, #136]	; (40181c <usart_serial_init+0x138>)
  401792:	4798      	blx	r3
#endif
		/* Configure USART */
		usart_init_rs232(p_usart, &usart_settings,
  401794:	4b1f      	ldr	r3, [pc, #124]	; (401814 <usart_serial_init+0x130>)
  401796:	4798      	blx	r3
  401798:	4602      	mov	r2, r0
  40179a:	f107 030c 	add.w	r3, r7, #12
  40179e:	4619      	mov	r1, r3
  4017a0:	6878      	ldr	r0, [r7, #4]
  4017a2:	4b24      	ldr	r3, [pc, #144]	; (401834 <usart_serial_init+0x150>)
  4017a4:	4798      	blx	r3
		/* Configure USART */
		usart_init_rs232(p_usart, &usart_settings,
				sysclk_get_peripheral_bus_hz(p_usart));
#endif
		/* Enable the receiver and transmitter. */
		usart_enable_tx(p_usart);
  4017a6:	6878      	ldr	r0, [r7, #4]
  4017a8:	4b23      	ldr	r3, [pc, #140]	; (401838 <usart_serial_init+0x154>)
  4017aa:	4798      	blx	r3
		usart_enable_rx(p_usart);
  4017ac:	6878      	ldr	r0, [r7, #4]
  4017ae:	4b23      	ldr	r3, [pc, #140]	; (40183c <usart_serial_init+0x158>)
  4017b0:	4798      	blx	r3
	}
# endif
# ifdef USART1
	if (USART1 == p_usart) {
  4017b2:	687b      	ldr	r3, [r7, #4]
  4017b4:	4a22      	ldr	r2, [pc, #136]	; (401840 <usart_serial_init+0x15c>)
  4017b6:	4293      	cmp	r3, r2
  4017b8:	d111      	bne.n	4017de <usart_serial_init+0xfa>
#if (!SAM4L)
#if (SAMG55)
		flexcom_enable(FLEXCOM1);
		flexcom_set_opmode(FLEXCOM1, FLEXCOM_USART);
#else
		sysclk_enable_peripheral_clock(ID_USART1);
  4017ba:	200e      	movs	r0, #14
  4017bc:	4b17      	ldr	r3, [pc, #92]	; (40181c <usart_serial_init+0x138>)
  4017be:	4798      	blx	r3
#endif
		/* Configure USART */
		usart_init_rs232(p_usart, &usart_settings,
  4017c0:	4b14      	ldr	r3, [pc, #80]	; (401814 <usart_serial_init+0x130>)
  4017c2:	4798      	blx	r3
  4017c4:	4602      	mov	r2, r0
  4017c6:	f107 030c 	add.w	r3, r7, #12
  4017ca:	4619      	mov	r1, r3
  4017cc:	6878      	ldr	r0, [r7, #4]
  4017ce:	4b19      	ldr	r3, [pc, #100]	; (401834 <usart_serial_init+0x150>)
  4017d0:	4798      	blx	r3
		/* Configure USART */
		usart_init_rs232(p_usart, &usart_settings,
				sysclk_get_peripheral_bus_hz(p_usart));
#endif
		/* Enable the receiver and transmitter. */
		usart_enable_tx(p_usart);
  4017d2:	6878      	ldr	r0, [r7, #4]
  4017d4:	4b18      	ldr	r3, [pc, #96]	; (401838 <usart_serial_init+0x154>)
  4017d6:	4798      	blx	r3
		usart_enable_rx(p_usart);
  4017d8:	6878      	ldr	r0, [r7, #4]
  4017da:	4b18      	ldr	r3, [pc, #96]	; (40183c <usart_serial_init+0x158>)
  4017dc:	4798      	blx	r3
	}
# endif
# ifdef USART2
	if (USART2 == p_usart) {
  4017de:	687b      	ldr	r3, [r7, #4]
  4017e0:	4a18      	ldr	r2, [pc, #96]	; (401844 <usart_serial_init+0x160>)
  4017e2:	4293      	cmp	r3, r2
  4017e4:	d111      	bne.n	40180a <usart_serial_init+0x126>
#if (!SAM4L)
#if (SAMG55)
		flexcom_enable(FLEXCOM2);
		flexcom_set_opmode(FLEXCOM2, FLEXCOM_USART);
#else
		sysclk_enable_peripheral_clock(ID_USART2);
  4017e6:	200f      	movs	r0, #15
  4017e8:	4b0c      	ldr	r3, [pc, #48]	; (40181c <usart_serial_init+0x138>)
  4017ea:	4798      	blx	r3
#endif
		/* Configure USART */
		usart_init_rs232(p_usart, &usart_settings,
  4017ec:	4b09      	ldr	r3, [pc, #36]	; (401814 <usart_serial_init+0x130>)
  4017ee:	4798      	blx	r3
  4017f0:	4602      	mov	r2, r0
  4017f2:	f107 030c 	add.w	r3, r7, #12
  4017f6:	4619      	mov	r1, r3
  4017f8:	6878      	ldr	r0, [r7, #4]
  4017fa:	4b0e      	ldr	r3, [pc, #56]	; (401834 <usart_serial_init+0x150>)
  4017fc:	4798      	blx	r3
		/* Configure USART */
		usart_init_rs232(p_usart, &usart_settings,
				sysclk_get_peripheral_bus_hz(p_usart));
#endif
		/* Enable the receiver and transmitter. */
		usart_enable_tx(p_usart);
  4017fe:	6878      	ldr	r0, [r7, #4]
  401800:	4b0d      	ldr	r3, [pc, #52]	; (401838 <usart_serial_init+0x154>)
  401802:	4798      	blx	r3
		usart_enable_rx(p_usart);
  401804:	6878      	ldr	r0, [r7, #4]
  401806:	4b0d      	ldr	r3, [pc, #52]	; (40183c <usart_serial_init+0x158>)
  401808:	4798      	blx	r3
	}
# endif

#endif /* ifdef USART */

}
  40180a:	bf00      	nop
  40180c:	3730      	adds	r7, #48	; 0x30
  40180e:	46bd      	mov	sp, r7
  401810:	bd80      	pop	{r7, pc}
  401812:	bf00      	nop
  401814:	004016b5 	.word	0x004016b5
  401818:	400e0800 	.word	0x400e0800
  40181c:	004016c9 	.word	0x004016c9
  401820:	00400e99 	.word	0x00400e99
  401824:	400e0a00 	.word	0x400e0a00
  401828:	400e1a00 	.word	0x400e1a00
  40182c:	400e1c00 	.word	0x400e1c00
  401830:	40024000 	.word	0x40024000
  401834:	00401035 	.word	0x00401035
  401838:	004010b9 	.word	0x004010b9
  40183c:	004010f1 	.word	0x004010f1
  401840:	40028000 	.word	0x40028000
  401844:	4002c000 	.word	0x4002c000

00401848 <usart_serial_putchar>:
 *   \retval 1  The character was written.
 *   \retval 0  The function timed out before the USART transmitter became
 * ready to send.
 */
static inline int usart_serial_putchar(usart_if p_usart, const uint8_t c)
{
  401848:	b580      	push	{r7, lr}
  40184a:	b082      	sub	sp, #8
  40184c:	af00      	add	r7, sp, #0
  40184e:	6078      	str	r0, [r7, #4]
  401850:	460b      	mov	r3, r1
  401852:	70fb      	strb	r3, [r7, #3]
		while (uart_write((Uart*)p_usart, c)!=0);
		return 1;
	}
#else
# ifdef UART0
	if (UART0 == (Uart*)p_usart) {
  401854:	687b      	ldr	r3, [r7, #4]
  401856:	4a36      	ldr	r2, [pc, #216]	; (401930 <usart_serial_putchar+0xe8>)
  401858:	4293      	cmp	r3, r2
  40185a:	d10a      	bne.n	401872 <usart_serial_putchar+0x2a>
		while (uart_write((Uart*)p_usart, c)!=0);
  40185c:	bf00      	nop
  40185e:	78fb      	ldrb	r3, [r7, #3]
  401860:	4619      	mov	r1, r3
  401862:	6878      	ldr	r0, [r7, #4]
  401864:	4b33      	ldr	r3, [pc, #204]	; (401934 <usart_serial_putchar+0xec>)
  401866:	4798      	blx	r3
  401868:	4603      	mov	r3, r0
  40186a:	2b00      	cmp	r3, #0
  40186c:	d1f7      	bne.n	40185e <usart_serial_putchar+0x16>
		return 1;
  40186e:	2301      	movs	r3, #1
  401870:	e05a      	b.n	401928 <usart_serial_putchar+0xe0>
	}
# endif
# ifdef UART1
	if (UART1 == (Uart*)p_usart) {
  401872:	687b      	ldr	r3, [r7, #4]
  401874:	4a30      	ldr	r2, [pc, #192]	; (401938 <usart_serial_putchar+0xf0>)
  401876:	4293      	cmp	r3, r2
  401878:	d10a      	bne.n	401890 <usart_serial_putchar+0x48>
		while (uart_write((Uart*)p_usart, c)!=0);
  40187a:	bf00      	nop
  40187c:	78fb      	ldrb	r3, [r7, #3]
  40187e:	4619      	mov	r1, r3
  401880:	6878      	ldr	r0, [r7, #4]
  401882:	4b2c      	ldr	r3, [pc, #176]	; (401934 <usart_serial_putchar+0xec>)
  401884:	4798      	blx	r3
  401886:	4603      	mov	r3, r0
  401888:	2b00      	cmp	r3, #0
  40188a:	d1f7      	bne.n	40187c <usart_serial_putchar+0x34>
		return 1;
  40188c:	2301      	movs	r3, #1
  40188e:	e04b      	b.n	401928 <usart_serial_putchar+0xe0>
	}
# endif
# ifdef UART2
	if (UART2 == (Uart*)p_usart) {
  401890:	687b      	ldr	r3, [r7, #4]
  401892:	4a2a      	ldr	r2, [pc, #168]	; (40193c <usart_serial_putchar+0xf4>)
  401894:	4293      	cmp	r3, r2
  401896:	d10a      	bne.n	4018ae <usart_serial_putchar+0x66>
		while (uart_write((Uart*)p_usart, c)!=0);
  401898:	bf00      	nop
  40189a:	78fb      	ldrb	r3, [r7, #3]
  40189c:	4619      	mov	r1, r3
  40189e:	6878      	ldr	r0, [r7, #4]
  4018a0:	4b24      	ldr	r3, [pc, #144]	; (401934 <usart_serial_putchar+0xec>)
  4018a2:	4798      	blx	r3
  4018a4:	4603      	mov	r3, r0
  4018a6:	2b00      	cmp	r3, #0
  4018a8:	d1f7      	bne.n	40189a <usart_serial_putchar+0x52>
		return 1;
  4018aa:	2301      	movs	r3, #1
  4018ac:	e03c      	b.n	401928 <usart_serial_putchar+0xe0>
	}
# endif
# ifdef UART3
	if (UART3 == (Uart*)p_usart) {
  4018ae:	687b      	ldr	r3, [r7, #4]
  4018b0:	4a23      	ldr	r2, [pc, #140]	; (401940 <usart_serial_putchar+0xf8>)
  4018b2:	4293      	cmp	r3, r2
  4018b4:	d10a      	bne.n	4018cc <usart_serial_putchar+0x84>
		while (uart_write((Uart*)p_usart, c)!=0);
  4018b6:	bf00      	nop
  4018b8:	78fb      	ldrb	r3, [r7, #3]
  4018ba:	4619      	mov	r1, r3
  4018bc:	6878      	ldr	r0, [r7, #4]
  4018be:	4b1d      	ldr	r3, [pc, #116]	; (401934 <usart_serial_putchar+0xec>)
  4018c0:	4798      	blx	r3
  4018c2:	4603      	mov	r3, r0
  4018c4:	2b00      	cmp	r3, #0
  4018c6:	d1f7      	bne.n	4018b8 <usart_serial_putchar+0x70>
		return 1;
  4018c8:	2301      	movs	r3, #1
  4018ca:	e02d      	b.n	401928 <usart_serial_putchar+0xe0>
		while (usart_write(p_usart, c)!=0);
		return 1;
	}
#else
# ifdef USART0
	if (USART0 == p_usart) {
  4018cc:	687b      	ldr	r3, [r7, #4]
  4018ce:	4a1d      	ldr	r2, [pc, #116]	; (401944 <usart_serial_putchar+0xfc>)
  4018d0:	4293      	cmp	r3, r2
  4018d2:	d10a      	bne.n	4018ea <usart_serial_putchar+0xa2>
		while (usart_write(p_usart, c)!=0);
  4018d4:	bf00      	nop
  4018d6:	78fb      	ldrb	r3, [r7, #3]
  4018d8:	4619      	mov	r1, r3
  4018da:	6878      	ldr	r0, [r7, #4]
  4018dc:	4b1a      	ldr	r3, [pc, #104]	; (401948 <usart_serial_putchar+0x100>)
  4018de:	4798      	blx	r3
  4018e0:	4603      	mov	r3, r0
  4018e2:	2b00      	cmp	r3, #0
  4018e4:	d1f7      	bne.n	4018d6 <usart_serial_putchar+0x8e>
		return 1;
  4018e6:	2301      	movs	r3, #1
  4018e8:	e01e      	b.n	401928 <usart_serial_putchar+0xe0>
	}
# endif
# ifdef USART1
	if (USART1 == p_usart) {
  4018ea:	687b      	ldr	r3, [r7, #4]
  4018ec:	4a17      	ldr	r2, [pc, #92]	; (40194c <usart_serial_putchar+0x104>)
  4018ee:	4293      	cmp	r3, r2
  4018f0:	d10a      	bne.n	401908 <usart_serial_putchar+0xc0>
		while (usart_write(p_usart, c)!=0);
  4018f2:	bf00      	nop
  4018f4:	78fb      	ldrb	r3, [r7, #3]
  4018f6:	4619      	mov	r1, r3
  4018f8:	6878      	ldr	r0, [r7, #4]
  4018fa:	4b13      	ldr	r3, [pc, #76]	; (401948 <usart_serial_putchar+0x100>)
  4018fc:	4798      	blx	r3
  4018fe:	4603      	mov	r3, r0
  401900:	2b00      	cmp	r3, #0
  401902:	d1f7      	bne.n	4018f4 <usart_serial_putchar+0xac>
		return 1;
  401904:	2301      	movs	r3, #1
  401906:	e00f      	b.n	401928 <usart_serial_putchar+0xe0>
	}
# endif
# ifdef USART2
	if (USART2 == p_usart) {
  401908:	687b      	ldr	r3, [r7, #4]
  40190a:	4a11      	ldr	r2, [pc, #68]	; (401950 <usart_serial_putchar+0x108>)
  40190c:	4293      	cmp	r3, r2
  40190e:	d10a      	bne.n	401926 <usart_serial_putchar+0xde>
		while (usart_write(p_usart, c)!=0);
  401910:	bf00      	nop
  401912:	78fb      	ldrb	r3, [r7, #3]
  401914:	4619      	mov	r1, r3
  401916:	6878      	ldr	r0, [r7, #4]
  401918:	4b0b      	ldr	r3, [pc, #44]	; (401948 <usart_serial_putchar+0x100>)
  40191a:	4798      	blx	r3
  40191c:	4603      	mov	r3, r0
  40191e:	2b00      	cmp	r3, #0
  401920:	d1f7      	bne.n	401912 <usart_serial_putchar+0xca>
		return 1;
  401922:	2301      	movs	r3, #1
  401924:	e000      	b.n	401928 <usart_serial_putchar+0xe0>
		return 1;
	}
# endif
#endif /* ifdef USART */

	return 0;
  401926:	2300      	movs	r3, #0
}
  401928:	4618      	mov	r0, r3
  40192a:	3708      	adds	r7, #8
  40192c:	46bd      	mov	sp, r7
  40192e:	bd80      	pop	{r7, pc}
  401930:	400e0800 	.word	0x400e0800
  401934:	00400ef1 	.word	0x00400ef1
  401938:	400e0a00 	.word	0x400e0a00
  40193c:	400e1a00 	.word	0x400e1a00
  401940:	400e1c00 	.word	0x400e1c00
  401944:	40024000 	.word	0x40024000
  401948:	00401161 	.word	0x00401161
  40194c:	40028000 	.word	0x40028000
  401950:	4002c000 	.word	0x4002c000

00401954 <usart_serial_getchar>:
 * \param p_usart   Base address of the USART instance.
 * \param data   Data to read
 *
 */
static inline void usart_serial_getchar(usart_if p_usart, uint8_t *data)
{
  401954:	b580      	push	{r7, lr}
  401956:	b084      	sub	sp, #16
  401958:	af00      	add	r7, sp, #0
  40195a:	6078      	str	r0, [r7, #4]
  40195c:	6039      	str	r1, [r7, #0]
	uint32_t val = 0;
  40195e:	2300      	movs	r3, #0
  401960:	60fb      	str	r3, [r7, #12]
	if (UART == (Uart*)p_usart) {
		while (uart_read((Uart*)p_usart, data));
	}
#else
# ifdef UART0
	if (UART0 == (Uart*)p_usart) {
  401962:	687b      	ldr	r3, [r7, #4]
  401964:	4a34      	ldr	r2, [pc, #208]	; (401a38 <usart_serial_getchar+0xe4>)
  401966:	4293      	cmp	r3, r2
  401968:	d107      	bne.n	40197a <usart_serial_getchar+0x26>
		while (uart_read((Uart*)p_usart, data));
  40196a:	bf00      	nop
  40196c:	6839      	ldr	r1, [r7, #0]
  40196e:	6878      	ldr	r0, [r7, #4]
  401970:	4b32      	ldr	r3, [pc, #200]	; (401a3c <usart_serial_getchar+0xe8>)
  401972:	4798      	blx	r3
  401974:	4603      	mov	r3, r0
  401976:	2b00      	cmp	r3, #0
  401978:	d1f8      	bne.n	40196c <usart_serial_getchar+0x18>
	}
# endif
# ifdef UART1
	if (UART1 == (Uart*)p_usart) {
  40197a:	687b      	ldr	r3, [r7, #4]
  40197c:	4a30      	ldr	r2, [pc, #192]	; (401a40 <usart_serial_getchar+0xec>)
  40197e:	4293      	cmp	r3, r2
  401980:	d107      	bne.n	401992 <usart_serial_getchar+0x3e>
		while (uart_read((Uart*)p_usart, data));
  401982:	bf00      	nop
  401984:	6839      	ldr	r1, [r7, #0]
  401986:	6878      	ldr	r0, [r7, #4]
  401988:	4b2c      	ldr	r3, [pc, #176]	; (401a3c <usart_serial_getchar+0xe8>)
  40198a:	4798      	blx	r3
  40198c:	4603      	mov	r3, r0
  40198e:	2b00      	cmp	r3, #0
  401990:	d1f8      	bne.n	401984 <usart_serial_getchar+0x30>
	}
# endif
# ifdef UART2
	if (UART2 == (Uart*)p_usart) {
  401992:	687b      	ldr	r3, [r7, #4]
  401994:	4a2b      	ldr	r2, [pc, #172]	; (401a44 <usart_serial_getchar+0xf0>)
  401996:	4293      	cmp	r3, r2
  401998:	d107      	bne.n	4019aa <usart_serial_getchar+0x56>
		while (uart_read((Uart*)p_usart, data));
  40199a:	bf00      	nop
  40199c:	6839      	ldr	r1, [r7, #0]
  40199e:	6878      	ldr	r0, [r7, #4]
  4019a0:	4b26      	ldr	r3, [pc, #152]	; (401a3c <usart_serial_getchar+0xe8>)
  4019a2:	4798      	blx	r3
  4019a4:	4603      	mov	r3, r0
  4019a6:	2b00      	cmp	r3, #0
  4019a8:	d1f8      	bne.n	40199c <usart_serial_getchar+0x48>
	}
# endif
# ifdef UART3
	if (UART3 == (Uart*)p_usart) {
  4019aa:	687b      	ldr	r3, [r7, #4]
  4019ac:	4a26      	ldr	r2, [pc, #152]	; (401a48 <usart_serial_getchar+0xf4>)
  4019ae:	4293      	cmp	r3, r2
  4019b0:	d107      	bne.n	4019c2 <usart_serial_getchar+0x6e>
		while (uart_read((Uart*)p_usart, data));
  4019b2:	bf00      	nop
  4019b4:	6839      	ldr	r1, [r7, #0]
  4019b6:	6878      	ldr	r0, [r7, #4]
  4019b8:	4b20      	ldr	r3, [pc, #128]	; (401a3c <usart_serial_getchar+0xe8>)
  4019ba:	4798      	blx	r3
  4019bc:	4603      	mov	r3, r0
  4019be:	2b00      	cmp	r3, #0
  4019c0:	d1f8      	bne.n	4019b4 <usart_serial_getchar+0x60>
		while (usart_read(p_usart, &val));
		*data = (uint8_t)(val & 0xFF);
	}
#else
# ifdef USART0
	if (USART0 == p_usart) {
  4019c2:	687b      	ldr	r3, [r7, #4]
  4019c4:	4a21      	ldr	r2, [pc, #132]	; (401a4c <usart_serial_getchar+0xf8>)
  4019c6:	4293      	cmp	r3, r2
  4019c8:	d10d      	bne.n	4019e6 <usart_serial_getchar+0x92>
		while (usart_read(p_usart, &val));
  4019ca:	bf00      	nop
  4019cc:	f107 030c 	add.w	r3, r7, #12
  4019d0:	4619      	mov	r1, r3
  4019d2:	6878      	ldr	r0, [r7, #4]
  4019d4:	4b1e      	ldr	r3, [pc, #120]	; (401a50 <usart_serial_getchar+0xfc>)
  4019d6:	4798      	blx	r3
  4019d8:	4603      	mov	r3, r0
  4019da:	2b00      	cmp	r3, #0
  4019dc:	d1f6      	bne.n	4019cc <usart_serial_getchar+0x78>
		*data = (uint8_t)(val & 0xFF);
  4019de:	68fb      	ldr	r3, [r7, #12]
  4019e0:	b2da      	uxtb	r2, r3
  4019e2:	683b      	ldr	r3, [r7, #0]
  4019e4:	701a      	strb	r2, [r3, #0]
	}
# endif
# ifdef USART1
	if (USART1 == p_usart) {
  4019e6:	687b      	ldr	r3, [r7, #4]
  4019e8:	4a1a      	ldr	r2, [pc, #104]	; (401a54 <usart_serial_getchar+0x100>)
  4019ea:	4293      	cmp	r3, r2
  4019ec:	d10d      	bne.n	401a0a <usart_serial_getchar+0xb6>
		while (usart_read(p_usart, &val));
  4019ee:	bf00      	nop
  4019f0:	f107 030c 	add.w	r3, r7, #12
  4019f4:	4619      	mov	r1, r3
  4019f6:	6878      	ldr	r0, [r7, #4]
  4019f8:	4b15      	ldr	r3, [pc, #84]	; (401a50 <usart_serial_getchar+0xfc>)
  4019fa:	4798      	blx	r3
  4019fc:	4603      	mov	r3, r0
  4019fe:	2b00      	cmp	r3, #0
  401a00:	d1f6      	bne.n	4019f0 <usart_serial_getchar+0x9c>
		*data = (uint8_t)(val & 0xFF);
  401a02:	68fb      	ldr	r3, [r7, #12]
  401a04:	b2da      	uxtb	r2, r3
  401a06:	683b      	ldr	r3, [r7, #0]
  401a08:	701a      	strb	r2, [r3, #0]
	}
# endif
# ifdef USART2
	if (USART2 == p_usart) {
  401a0a:	687b      	ldr	r3, [r7, #4]
  401a0c:	4a12      	ldr	r2, [pc, #72]	; (401a58 <usart_serial_getchar+0x104>)
  401a0e:	4293      	cmp	r3, r2
  401a10:	d10d      	bne.n	401a2e <usart_serial_getchar+0xda>
		while (usart_read(p_usart, &val));
  401a12:	bf00      	nop
  401a14:	f107 030c 	add.w	r3, r7, #12
  401a18:	4619      	mov	r1, r3
  401a1a:	6878      	ldr	r0, [r7, #4]
  401a1c:	4b0c      	ldr	r3, [pc, #48]	; (401a50 <usart_serial_getchar+0xfc>)
  401a1e:	4798      	blx	r3
  401a20:	4603      	mov	r3, r0
  401a22:	2b00      	cmp	r3, #0
  401a24:	d1f6      	bne.n	401a14 <usart_serial_getchar+0xc0>
		*data = (uint8_t)(val & 0xFF);
  401a26:	68fb      	ldr	r3, [r7, #12]
  401a28:	b2da      	uxtb	r2, r3
  401a2a:	683b      	ldr	r3, [r7, #0]
  401a2c:	701a      	strb	r2, [r3, #0]
		*data = (uint8_t)(val & 0xFF);
	}
# endif
#endif /* ifdef USART */

}
  401a2e:	bf00      	nop
  401a30:	3710      	adds	r7, #16
  401a32:	46bd      	mov	sp, r7
  401a34:	bd80      	pop	{r7, pc}
  401a36:	bf00      	nop
  401a38:	400e0800 	.word	0x400e0800
  401a3c:	00400f21 	.word	0x00400f21
  401a40:	400e0a00 	.word	0x400e0a00
  401a44:	400e1a00 	.word	0x400e1a00
  401a48:	400e1c00 	.word	0x400e1c00
  401a4c:	40024000 	.word	0x40024000
  401a50:	00401195 	.word	0x00401195
  401a54:	40028000 	.word	0x40028000
  401a58:	4002c000 	.word	0x4002c000

00401a5c <stdio_serial_init>:
 * \param usart       Base address of the USART instance.
 * \param opt         Options needed to set up RS232 communication (see \ref usart_options_t).
 *
 */
static inline void stdio_serial_init(volatile void *usart, const usart_serial_options_t *opt)
{
  401a5c:	b580      	push	{r7, lr}
  401a5e:	b082      	sub	sp, #8
  401a60:	af00      	add	r7, sp, #0
  401a62:	6078      	str	r0, [r7, #4]
  401a64:	6039      	str	r1, [r7, #0]
	stdio_base = (void *)usart;
  401a66:	4a0f      	ldr	r2, [pc, #60]	; (401aa4 <stdio_serial_init+0x48>)
  401a68:	687b      	ldr	r3, [r7, #4]
  401a6a:	6013      	str	r3, [r2, #0]
	ptr_put = (int (*)(void volatile*,char))&usart_serial_putchar;
  401a6c:	4b0e      	ldr	r3, [pc, #56]	; (401aa8 <stdio_serial_init+0x4c>)
  401a6e:	4a0f      	ldr	r2, [pc, #60]	; (401aac <stdio_serial_init+0x50>)
  401a70:	601a      	str	r2, [r3, #0]
	ptr_get = (void (*)(void volatile*,char*))&usart_serial_getchar;
  401a72:	4b0f      	ldr	r3, [pc, #60]	; (401ab0 <stdio_serial_init+0x54>)
  401a74:	4a0f      	ldr	r2, [pc, #60]	; (401ab4 <stdio_serial_init+0x58>)
  401a76:	601a      	str	r2, [r3, #0]
# if (XMEGA || MEGA_RF)
	usart_serial_init((USART_t *)usart,opt);
# elif UC3
	usart_serial_init(usart,(usart_serial_options_t *)opt);
# elif SAM
	usart_serial_init((Usart *)usart,(usart_serial_options_t *)opt);
  401a78:	6839      	ldr	r1, [r7, #0]
  401a7a:	6878      	ldr	r0, [r7, #4]
  401a7c:	4b0e      	ldr	r3, [pc, #56]	; (401ab8 <stdio_serial_init+0x5c>)
  401a7e:	4798      	blx	r3
	fdevopen((int (*)(char, FILE*))(_write),(int (*)(FILE*))(_read));
#  endif
#  if UC3 || SAM
	// For AVR32 and SAM GCC
	// Specify that stdout and stdin should not be buffered.
	setbuf(stdout, NULL);
  401a80:	4b0e      	ldr	r3, [pc, #56]	; (401abc <stdio_serial_init+0x60>)
  401a82:	681b      	ldr	r3, [r3, #0]
  401a84:	689b      	ldr	r3, [r3, #8]
  401a86:	2100      	movs	r1, #0
  401a88:	4618      	mov	r0, r3
  401a8a:	4b0d      	ldr	r3, [pc, #52]	; (401ac0 <stdio_serial_init+0x64>)
  401a8c:	4798      	blx	r3
	setbuf(stdin, NULL);
  401a8e:	4b0b      	ldr	r3, [pc, #44]	; (401abc <stdio_serial_init+0x60>)
  401a90:	681b      	ldr	r3, [r3, #0]
  401a92:	685b      	ldr	r3, [r3, #4]
  401a94:	2100      	movs	r1, #0
  401a96:	4618      	mov	r0, r3
  401a98:	4b09      	ldr	r3, [pc, #36]	; (401ac0 <stdio_serial_init+0x64>)
  401a9a:	4798      	blx	r3
	// and AVR GCC library:
	// - printf() emits one character at a time.
	// - getchar() requests only 1 byte to exit.
#  endif
# endif
}
  401a9c:	bf00      	nop
  401a9e:	3708      	adds	r7, #8
  401aa0:	46bd      	mov	sp, r7
  401aa2:	bd80      	pop	{r7, pc}
  401aa4:	20400914 	.word	0x20400914
  401aa8:	20400910 	.word	0x20400910
  401aac:	00401849 	.word	0x00401849
  401ab0:	2040090c 	.word	0x2040090c
  401ab4:	00401955 	.word	0x00401955
  401ab8:	004016e5 	.word	0x004016e5
  401abc:	20400430 	.word	0x20400430
  401ac0:	00401e31 	.word	0x00401e31

00401ac4 <TC1_Handler>:
/************************************************************************/

/**
 *  Interrupt handler for TC1 interrupt. 
 */
void TC1_Handler(void){
  401ac4:	b580      	push	{r7, lr}
  401ac6:	b082      	sub	sp, #8
  401ac8:	af00      	add	r7, sp, #0
	volatile uint32_t ul_dummy;

    /****************************************************************
	* Devemos indicar ao TC que a interrupo foi satisfeita.
    ******************************************************************/
	ul_dummy = tc_get_status(TC0, 1);
  401aca:	2101      	movs	r1, #1
  401acc:	4807      	ldr	r0, [pc, #28]	; (401aec <TC1_Handler+0x28>)
  401ace:	4b08      	ldr	r3, [pc, #32]	; (401af0 <TC1_Handler+0x2c>)
  401ad0:	4798      	blx	r3
  401ad2:	4603      	mov	r3, r0
  401ad4:	607b      	str	r3, [r7, #4]

	/* Avoid compiler warning */
	UNUSED(ul_dummy);
  401ad6:	687b      	ldr	r3, [r7, #4]

	/** Muda o estado do LED */
  	 
  pin_toggle(LED_PIO, LED_PIN_MASK);
  401ad8:	f44f 5100 	mov.w	r1, #8192	; 0x2000
  401adc:	4805      	ldr	r0, [pc, #20]	; (401af4 <TC1_Handler+0x30>)
  401ade:	4b06      	ldr	r3, [pc, #24]	; (401af8 <TC1_Handler+0x34>)
  401ae0:	4798      	blx	r3
    
 }
  401ae2:	bf00      	nop
  401ae4:	3708      	adds	r7, #8
  401ae6:	46bd      	mov	sp, r7
  401ae8:	bd80      	pop	{r7, pc}
  401aea:	bf00      	nop
  401aec:	4000c000 	.word	0x4000c000
  401af0:	00400dcd 	.word	0x00400dcd
  401af4:	400e1200 	.word	0x400e1200
  401af8:	00401b45 	.word	0x00401b45

00401afc <RTC_Handler>:

/**
 * \brief Interrupt handler for the RTC. Refresh the display.
 */
void RTC_Handler(void)
{
  401afc:	b580      	push	{r7, lr}
  401afe:	b082      	sub	sp, #8
  401b00:	af00      	add	r7, sp, #0
	uint32_t ul_status = rtc_get_status(RTC);
  401b02:	480d      	ldr	r0, [pc, #52]	; (401b38 <RTC_Handler+0x3c>)
  401b04:	4b0d      	ldr	r3, [pc, #52]	; (401b3c <RTC_Handler+0x40>)
  401b06:	4798      	blx	r3
  401b08:	6078      	str	r0, [r7, #4]

	/* Second increment interrupt */
	if ((ul_status & RTC_SR_SEC) == RTC_SR_SEC) {
  401b0a:	687b      	ldr	r3, [r7, #4]
  401b0c:	f003 0304 	and.w	r3, r3, #4
  401b10:	2b00      	cmp	r3, #0
  401b12:	d004      	beq.n	401b1e <RTC_Handler+0x22>
	
		rtc_clear_status(RTC, RTC_SCCR_SECCLR);
  401b14:	2104      	movs	r1, #4
  401b16:	4808      	ldr	r0, [pc, #32]	; (401b38 <RTC_Handler+0x3c>)
  401b18:	4b09      	ldr	r3, [pc, #36]	; (401b40 <RTC_Handler+0x44>)
  401b1a:	4798      	blx	r3
		if ((ul_status & RTC_SR_ALARM) == RTC_SR_ALARM) {
      
			rtc_clear_status(RTC, RTC_SCCR_ALRCLR);
		}
	}
}
  401b1c:	e008      	b.n	401b30 <RTC_Handler+0x34>
	
		rtc_clear_status(RTC, RTC_SCCR_SECCLR);

	} else {
		/* Time or date alarm */
		if ((ul_status & RTC_SR_ALARM) == RTC_SR_ALARM) {
  401b1e:	687b      	ldr	r3, [r7, #4]
  401b20:	f003 0302 	and.w	r3, r3, #2
  401b24:	2b00      	cmp	r3, #0
  401b26:	d003      	beq.n	401b30 <RTC_Handler+0x34>
      
			rtc_clear_status(RTC, RTC_SCCR_ALRCLR);
  401b28:	2102      	movs	r1, #2
  401b2a:	4803      	ldr	r0, [pc, #12]	; (401b38 <RTC_Handler+0x3c>)
  401b2c:	4b04      	ldr	r3, [pc, #16]	; (401b40 <RTC_Handler+0x44>)
  401b2e:	4798      	blx	r3
		}
	}
}
  401b30:	bf00      	nop
  401b32:	3708      	adds	r7, #8
  401b34:	46bd      	mov	sp, r7
  401b36:	bd80      	pop	{r7, pc}
  401b38:	400e1860 	.word	0x400e1860
  401b3c:	00400cc1 	.word	0x00400cc1
  401b40:	00400cd9 	.word	0x00400cd9

00401b44 <pin_toggle>:
/************************************************************************/

/** 
 *  Toggle pin controlado pelo PIO (out)
 */
void pin_toggle(Pio *pio, uint32_t mask){
  401b44:	b580      	push	{r7, lr}
  401b46:	b082      	sub	sp, #8
  401b48:	af00      	add	r7, sp, #0
  401b4a:	6078      	str	r0, [r7, #4]
  401b4c:	6039      	str	r1, [r7, #0]
   if(pio_get_output_data_status(pio, mask))
  401b4e:	6839      	ldr	r1, [r7, #0]
  401b50:	6878      	ldr	r0, [r7, #4]
  401b52:	4b09      	ldr	r3, [pc, #36]	; (401b78 <pin_toggle+0x34>)
  401b54:	4798      	blx	r3
  401b56:	4603      	mov	r3, r0
  401b58:	2b00      	cmp	r3, #0
  401b5a:	d004      	beq.n	401b66 <pin_toggle+0x22>
    pio_clear(pio, mask);
  401b5c:	6839      	ldr	r1, [r7, #0]
  401b5e:	6878      	ldr	r0, [r7, #4]
  401b60:	4b06      	ldr	r3, [pc, #24]	; (401b7c <pin_toggle+0x38>)
  401b62:	4798      	blx	r3
   else
    pio_set(pio,mask);
}
  401b64:	e003      	b.n	401b6e <pin_toggle+0x2a>
 */
void pin_toggle(Pio *pio, uint32_t mask){
   if(pio_get_output_data_status(pio, mask))
    pio_clear(pio, mask);
   else
    pio_set(pio,mask);
  401b66:	6839      	ldr	r1, [r7, #0]
  401b68:	6878      	ldr	r0, [r7, #4]
  401b6a:	4b05      	ldr	r3, [pc, #20]	; (401b80 <pin_toggle+0x3c>)
  401b6c:	4798      	blx	r3
}
  401b6e:	bf00      	nop
  401b70:	3708      	adds	r7, #8
  401b72:	46bd      	mov	sp, r7
  401b74:	bd80      	pop	{r7, pc}
  401b76:	bf00      	nop
  401b78:	004007b1 	.word	0x004007b1
  401b7c:	00400621 	.word	0x00400621
  401b80:	00400605 	.word	0x00400605

00401b84 <LED_init>:

/**
 * @Brief Inicializa o pino do LED
 */
void LED_init(int estado){
  401b84:	b590      	push	{r4, r7, lr}
  401b86:	b085      	sub	sp, #20
  401b88:	af02      	add	r7, sp, #8
  401b8a:	6078      	str	r0, [r7, #4]
    pmc_enable_periph_clk(LED_PIO_ID);
  401b8c:	200c      	movs	r0, #12
  401b8e:	4b07      	ldr	r3, [pc, #28]	; (401bac <LED_init+0x28>)
  401b90:	4798      	blx	r3
    pio_set_output(LED_PIO, LED_PIN_MASK, estado, 0, 0 );
  401b92:	687a      	ldr	r2, [r7, #4]
  401b94:	2300      	movs	r3, #0
  401b96:	9300      	str	r3, [sp, #0]
  401b98:	2300      	movs	r3, #0
  401b9a:	f44f 5100 	mov.w	r1, #8192	; 0x2000
  401b9e:	4804      	ldr	r0, [pc, #16]	; (401bb0 <LED_init+0x2c>)
  401ba0:	4c04      	ldr	r4, [pc, #16]	; (401bb4 <LED_init+0x30>)
  401ba2:	47a0      	blx	r4
};
  401ba4:	bf00      	nop
  401ba6:	370c      	adds	r7, #12
  401ba8:	46bd      	mov	sp, r7
  401baa:	bd90      	pop	{r4, r7, pc}
  401bac:	00400c15 	.word	0x00400c15
  401bb0:	400e1200 	.word	0x400e1200
  401bb4:	0040074d 	.word	0x0040074d

00401bb8 <TC1_init>:

/**
 * Configura TimerCounter (TC0) para gerar uma interrupcao no canal 0-(ID_TC1) 
 * a cada 250 ms (4Hz)
 */
void TC1_init(void){   
  401bb8:	b590      	push	{r4, r7, lr}
  401bba:	b087      	sub	sp, #28
  401bbc:	af02      	add	r7, sp, #8
    uint32_t ul_div;
    uint32_t ul_tcclks;
    uint32_t ul_sysclk = sysclk_get_cpu_hz();
  401bbe:	4b21      	ldr	r3, [pc, #132]	; (401c44 <TC1_init+0x8c>)
  401bc0:	4798      	blx	r3
  401bc2:	60f8      	str	r0, [r7, #12]
    
    uint32_t channel = 1;
  401bc4:	2301      	movs	r3, #1
  401bc6:	60bb      	str	r3, [r7, #8]
    
    /* Configura o PMC */
    pmc_enable_periph_clk(ID_TC1);    
  401bc8:	2018      	movs	r0, #24
  401bca:	4b1f      	ldr	r3, [pc, #124]	; (401c48 <TC1_init+0x90>)
  401bcc:	4798      	blx	r3

    /** Configura o TC para operar em  4Mhz e interrupco no RC compare */
    tc_find_mck_divisor(2, ul_sysclk, &ul_div, &ul_tcclks, ul_sysclk);// troquei de 4 mhz para 1
  401bce:	4639      	mov	r1, r7
  401bd0:	1d3a      	adds	r2, r7, #4
  401bd2:	68fb      	ldr	r3, [r7, #12]
  401bd4:	9300      	str	r3, [sp, #0]
  401bd6:	460b      	mov	r3, r1
  401bd8:	68f9      	ldr	r1, [r7, #12]
  401bda:	2002      	movs	r0, #2
  401bdc:	4c1b      	ldr	r4, [pc, #108]	; (401c4c <TC1_init+0x94>)
  401bde:	47a0      	blx	r4
    tc_init(TC0, channel, ul_tcclks | TC_CMR_WAVE);//mudando modo de operao
  401be0:	683b      	ldr	r3, [r7, #0]
  401be2:	f443 4300 	orr.w	r3, r3, #32768	; 0x8000
  401be6:	461a      	mov	r2, r3
  401be8:	68b9      	ldr	r1, [r7, #8]
  401bea:	4819      	ldr	r0, [pc, #100]	; (401c50 <TC1_init+0x98>)
  401bec:	4b19      	ldr	r3, [pc, #100]	; (401c54 <TC1_init+0x9c>)
  401bee:	4798      	blx	r3
    tc_write_rc(TC0, channel, (ul_sysclk / ul_div) /93);//faz piscar mais rpido ou mais lento (divisor decide)
  401bf0:	687b      	ldr	r3, [r7, #4]
  401bf2:	68fa      	ldr	r2, [r7, #12]
  401bf4:	fbb2 f3f3 	udiv	r3, r2, r3
  401bf8:	4a17      	ldr	r2, [pc, #92]	; (401c58 <TC1_init+0xa0>)
  401bfa:	fba2 2303 	umull	r2, r3, r2, r3
  401bfe:	099b      	lsrs	r3, r3, #6
  401c00:	461a      	mov	r2, r3
  401c02:	68b9      	ldr	r1, [r7, #8]
  401c04:	4812      	ldr	r0, [pc, #72]	; (401c50 <TC1_init+0x98>)
  401c06:	4b15      	ldr	r3, [pc, #84]	; (401c5c <TC1_init+0xa4>)
  401c08:	4798      	blx	r3
	tc_write_ra(TC0,channel,(ul_sysclk/ul_div)/94 );//mudanca de interrupcao do RA  (pg1386)
  401c0a:	687b      	ldr	r3, [r7, #4]
  401c0c:	68fa      	ldr	r2, [r7, #12]
  401c0e:	fbb2 f3f3 	udiv	r3, r2, r3
  401c12:	4a13      	ldr	r2, [pc, #76]	; (401c60 <TC1_init+0xa8>)
  401c14:	fba2 2303 	umull	r2, r3, r2, r3
  401c18:	099b      	lsrs	r3, r3, #6
  401c1a:	461a      	mov	r2, r3
  401c1c:	68b9      	ldr	r1, [r7, #8]
  401c1e:	480c      	ldr	r0, [pc, #48]	; (401c50 <TC1_init+0x98>)
  401c20:	4b10      	ldr	r3, [pc, #64]	; (401c64 <TC1_init+0xac>)
  401c22:	4798      	blx	r3
    /* Configura e ativa interrupco no TC canal 0 */
    NVIC_EnableIRQ((IRQn_Type) ID_TC1);
  401c24:	2018      	movs	r0, #24
  401c26:	4b10      	ldr	r3, [pc, #64]	; (401c68 <TC1_init+0xb0>)
  401c28:	4798      	blx	r3
	tc_enable_interrupt(TC0, channel, (TC_IER_CPCS)|(TC_IER_CPAS));//concatenando as interrupcoes de RA e RC 
  401c2a:	2214      	movs	r2, #20
  401c2c:	68b9      	ldr	r1, [r7, #8]
  401c2e:	4808      	ldr	r0, [pc, #32]	; (401c50 <TC1_init+0x98>)
  401c30:	4b0e      	ldr	r3, [pc, #56]	; (401c6c <TC1_init+0xb4>)
  401c32:	4798      	blx	r3

    /* Inicializa o canal 0 do TC */
    tc_start(TC0, channel);
  401c34:	68b9      	ldr	r1, [r7, #8]
  401c36:	4806      	ldr	r0, [pc, #24]	; (401c50 <TC1_init+0x98>)
  401c38:	4b0d      	ldr	r3, [pc, #52]	; (401c70 <TC1_init+0xb8>)
  401c3a:	4798      	blx	r3
}
  401c3c:	bf00      	nop
  401c3e:	3714      	adds	r7, #20
  401c40:	46bd      	mov	sp, r7
  401c42:	bd90      	pop	{r4, r7, pc}
  401c44:	004016a1 	.word	0x004016a1
  401c48:	00400c15 	.word	0x00400c15
  401c4c:	00400df1 	.word	0x00400df1
  401c50:	4000c000 	.word	0x4000c000
  401c54:	00400cf5 	.word	0x00400cf5
  401c58:	b02c0b03 	.word	0xb02c0b03
  401c5c:	00400d7d 	.word	0x00400d7d
  401c60:	ae4c415d 	.word	0xae4c415d
  401c64:	00400d55 	.word	0x00400d55
  401c68:	004015d9 	.word	0x004015d9
  401c6c:	00400da5 	.word	0x00400da5
  401c70:	00400d31 	.word	0x00400d31

00401c74 <USART1_init>:
}

/**
 * \brief Configure UART console.
 */
static void USART1_init(void){
  401c74:	b580      	push	{r7, lr}
  401c76:	b086      	sub	sp, #24
  401c78:	af00      	add	r7, sp, #0
  
  /* Configura USART1 Pinos */
 sysclk_enable_peripheral_clock(ID_PIOB);
  401c7a:	200b      	movs	r0, #11
  401c7c:	4b1a      	ldr	r3, [pc, #104]	; (401ce8 <USART1_init+0x74>)
  401c7e:	4798      	blx	r3
 sysclk_enable_peripheral_clock(ID_PIOA);
  401c80:	200a      	movs	r0, #10
  401c82:	4b19      	ldr	r3, [pc, #100]	; (401ce8 <USART1_init+0x74>)
  401c84:	4798      	blx	r3
 pio_set_peripheral(PIOB, PIO_PERIPH_D, PIO_PB4);  // RX
  401c86:	2210      	movs	r2, #16
  401c88:	f04f 5100 	mov.w	r1, #536870912	; 0x20000000
  401c8c:	4817      	ldr	r0, [pc, #92]	; (401cec <USART1_init+0x78>)
  401c8e:	4b18      	ldr	r3, [pc, #96]	; (401cf0 <USART1_init+0x7c>)
  401c90:	4798      	blx	r3
 pio_set_peripheral(PIOA, PIO_PERIPH_A, PIO_PA21); // TX
  401c92:	f44f 1200 	mov.w	r2, #2097152	; 0x200000
  401c96:	f04f 6100 	mov.w	r1, #134217728	; 0x8000000
  401c9a:	4816      	ldr	r0, [pc, #88]	; (401cf4 <USART1_init+0x80>)
  401c9c:	4b14      	ldr	r3, [pc, #80]	; (401cf0 <USART1_init+0x7c>)
  401c9e:	4798      	blx	r3
 MATRIX->CCFG_SYSIO |= CCFG_SYSIO_SYSIO4;
  401ca0:	4a15      	ldr	r2, [pc, #84]	; (401cf8 <USART1_init+0x84>)
  401ca2:	4b15      	ldr	r3, [pc, #84]	; (401cf8 <USART1_init+0x84>)
  401ca4:	f8d3 3114 	ldr.w	r3, [r3, #276]	; 0x114
  401ca8:	f043 0310 	orr.w	r3, r3, #16
  401cac:	f8c2 3114 	str.w	r3, [r2, #276]	; 0x114
  
  /* Configura opcoes USART */
  const sam_usart_opt_t usart_settings = {
  401cb0:	463b      	mov	r3, r7
  401cb2:	2200      	movs	r2, #0
  401cb4:	601a      	str	r2, [r3, #0]
  401cb6:	605a      	str	r2, [r3, #4]
  401cb8:	609a      	str	r2, [r3, #8]
  401cba:	60da      	str	r2, [r3, #12]
  401cbc:	611a      	str	r2, [r3, #16]
  401cbe:	615a      	str	r2, [r3, #20]
  401cc0:	f44f 33e1 	mov.w	r3, #115200	; 0x1c200
  401cc4:	603b      	str	r3, [r7, #0]
  401cc6:	23c0      	movs	r3, #192	; 0xc0
  401cc8:	607b      	str	r3, [r7, #4]
  401cca:	f44f 6300 	mov.w	r3, #2048	; 0x800
  401cce:	60bb      	str	r3, [r7, #8]
    .stop_bits    = US_MR_NBSTOP_1_BIT    ,
    .channel_mode = US_MR_CHMODE_NORMAL
  };

  /* Ativa Clock periferico USART0 */
  sysclk_enable_peripheral_clock(USART_COM_ID); 
  401cd0:	200e      	movs	r0, #14
  401cd2:	4b05      	ldr	r3, [pc, #20]	; (401ce8 <USART1_init+0x74>)
  401cd4:	4798      	blx	r3
 	stdio_serial_init(CONF_UART, &usart_settings);
  401cd6:	463b      	mov	r3, r7
  401cd8:	4619      	mov	r1, r3
  401cda:	4808      	ldr	r0, [pc, #32]	; (401cfc <USART1_init+0x88>)
  401cdc:	4b08      	ldr	r3, [pc, #32]	; (401d00 <USART1_init+0x8c>)
  401cde:	4798      	blx	r3

 }
  401ce0:	bf00      	nop
  401ce2:	3718      	adds	r7, #24
  401ce4:	46bd      	mov	sp, r7
  401ce6:	bd80      	pop	{r7, pc}
  401ce8:	004016c9 	.word	0x004016c9
  401cec:	400e1000 	.word	0x400e1000
  401cf0:	0040063d 	.word	0x0040063d
  401cf4:	400e0e00 	.word	0x400e0e00
  401cf8:	40088000 	.word	0x40088000
  401cfc:	40028000 	.word	0x40028000
  401d00:	00401a5d 	.word	0x00401a5d

00401d04 <main>:

/************************************************************************/
/* Main Code	                                                        */
/************************************************************************/
int main(void){
  401d04:	b580      	push	{r7, lr}
  401d06:	af00      	add	r7, sp, #0
	/* Initialize the SAM system */
	sysclk_init();
  401d08:	4b08      	ldr	r3, [pc, #32]	; (401d2c <main+0x28>)
  401d0a:	4798      	blx	r3
	
	/* Disable the watchdog */
	WDT->WDT_MR = WDT_MR_WDDIS;
  401d0c:	4b08      	ldr	r3, [pc, #32]	; (401d30 <main+0x2c>)
  401d0e:	f44f 4200 	mov.w	r2, #32768	; 0x8000
  401d12:	605a      	str	r2, [r3, #4]

  /* Configura Leds */
  LED_init(0);
  401d14:	2000      	movs	r0, #0
  401d16:	4b07      	ldr	r3, [pc, #28]	; (401d34 <main+0x30>)
  401d18:	4798      	blx	r3


  /** Configura timer 0 */
  TC1_init();
  401d1a:	4b07      	ldr	r3, [pc, #28]	; (401d38 <main+0x34>)
  401d1c:	4798      	blx	r3
    
  /** Configura RTC */
  //RTC_init();
  
  /** Inicializa USART como printf */
  USART1_init();
  401d1e:	4b07      	ldr	r3, [pc, #28]	; (401d3c <main+0x38>)
  401d20:	4798      	blx	r3
  
	while (1) {
		 pmc_enable_sleepmode(0);//dorme enquanto o TC Handler no  chamado
  401d22:	2000      	movs	r0, #0
  401d24:	4b06      	ldr	r3, [pc, #24]	; (401d40 <main+0x3c>)
  401d26:	4798      	blx	r3
	}
  401d28:	e7fb      	b.n	401d22 <main+0x1e>
  401d2a:	bf00      	nop
  401d2c:	0040049d 	.word	0x0040049d
  401d30:	400e1850 	.word	0x400e1850
  401d34:	00401b85 	.word	0x00401b85
  401d38:	00401bb9 	.word	0x00401bb9
  401d3c:	00401c75 	.word	0x00401c75
  401d40:	00400c99 	.word	0x00400c99

00401d44 <__libc_init_array>:
  401d44:	b570      	push	{r4, r5, r6, lr}
  401d46:	4e0f      	ldr	r6, [pc, #60]	; (401d84 <__libc_init_array+0x40>)
  401d48:	4d0f      	ldr	r5, [pc, #60]	; (401d88 <__libc_init_array+0x44>)
  401d4a:	1b76      	subs	r6, r6, r5
  401d4c:	10b6      	asrs	r6, r6, #2
  401d4e:	bf18      	it	ne
  401d50:	2400      	movne	r4, #0
  401d52:	d005      	beq.n	401d60 <__libc_init_array+0x1c>
  401d54:	3401      	adds	r4, #1
  401d56:	f855 3b04 	ldr.w	r3, [r5], #4
  401d5a:	4798      	blx	r3
  401d5c:	42a6      	cmp	r6, r4
  401d5e:	d1f9      	bne.n	401d54 <__libc_init_array+0x10>
  401d60:	4e0a      	ldr	r6, [pc, #40]	; (401d8c <__libc_init_array+0x48>)
  401d62:	4d0b      	ldr	r5, [pc, #44]	; (401d90 <__libc_init_array+0x4c>)
  401d64:	1b76      	subs	r6, r6, r5
  401d66:	f001 f823 	bl	402db0 <_init>
  401d6a:	10b6      	asrs	r6, r6, #2
  401d6c:	bf18      	it	ne
  401d6e:	2400      	movne	r4, #0
  401d70:	d006      	beq.n	401d80 <__libc_init_array+0x3c>
  401d72:	3401      	adds	r4, #1
  401d74:	f855 3b04 	ldr.w	r3, [r5], #4
  401d78:	4798      	blx	r3
  401d7a:	42a6      	cmp	r6, r4
  401d7c:	d1f9      	bne.n	401d72 <__libc_init_array+0x2e>
  401d7e:	bd70      	pop	{r4, r5, r6, pc}
  401d80:	bd70      	pop	{r4, r5, r6, pc}
  401d82:	bf00      	nop
  401d84:	00402dbc 	.word	0x00402dbc
  401d88:	00402dbc 	.word	0x00402dbc
  401d8c:	00402dc4 	.word	0x00402dc4
  401d90:	00402dbc 	.word	0x00402dbc

00401d94 <memset>:
  401d94:	b470      	push	{r4, r5, r6}
  401d96:	0784      	lsls	r4, r0, #30
  401d98:	d046      	beq.n	401e28 <memset+0x94>
  401d9a:	1e54      	subs	r4, r2, #1
  401d9c:	2a00      	cmp	r2, #0
  401d9e:	d041      	beq.n	401e24 <memset+0x90>
  401da0:	b2cd      	uxtb	r5, r1
  401da2:	4603      	mov	r3, r0
  401da4:	e002      	b.n	401dac <memset+0x18>
  401da6:	1e62      	subs	r2, r4, #1
  401da8:	b3e4      	cbz	r4, 401e24 <memset+0x90>
  401daa:	4614      	mov	r4, r2
  401dac:	f803 5b01 	strb.w	r5, [r3], #1
  401db0:	079a      	lsls	r2, r3, #30
  401db2:	d1f8      	bne.n	401da6 <memset+0x12>
  401db4:	2c03      	cmp	r4, #3
  401db6:	d92e      	bls.n	401e16 <memset+0x82>
  401db8:	b2cd      	uxtb	r5, r1
  401dba:	ea45 2505 	orr.w	r5, r5, r5, lsl #8
  401dbe:	2c0f      	cmp	r4, #15
  401dc0:	ea45 4505 	orr.w	r5, r5, r5, lsl #16
  401dc4:	d919      	bls.n	401dfa <memset+0x66>
  401dc6:	f103 0210 	add.w	r2, r3, #16
  401dca:	4626      	mov	r6, r4
  401dcc:	3e10      	subs	r6, #16
  401dce:	2e0f      	cmp	r6, #15
  401dd0:	f842 5c10 	str.w	r5, [r2, #-16]
  401dd4:	f842 5c0c 	str.w	r5, [r2, #-12]
  401dd8:	f842 5c08 	str.w	r5, [r2, #-8]
  401ddc:	f842 5c04 	str.w	r5, [r2, #-4]
  401de0:	f102 0210 	add.w	r2, r2, #16
  401de4:	d8f2      	bhi.n	401dcc <memset+0x38>
  401de6:	f1a4 0210 	sub.w	r2, r4, #16
  401dea:	f022 020f 	bic.w	r2, r2, #15
  401dee:	f004 040f 	and.w	r4, r4, #15
  401df2:	3210      	adds	r2, #16
  401df4:	2c03      	cmp	r4, #3
  401df6:	4413      	add	r3, r2
  401df8:	d90d      	bls.n	401e16 <memset+0x82>
  401dfa:	461e      	mov	r6, r3
  401dfc:	4622      	mov	r2, r4
  401dfe:	3a04      	subs	r2, #4
  401e00:	2a03      	cmp	r2, #3
  401e02:	f846 5b04 	str.w	r5, [r6], #4
  401e06:	d8fa      	bhi.n	401dfe <memset+0x6a>
  401e08:	1f22      	subs	r2, r4, #4
  401e0a:	f022 0203 	bic.w	r2, r2, #3
  401e0e:	3204      	adds	r2, #4
  401e10:	4413      	add	r3, r2
  401e12:	f004 0403 	and.w	r4, r4, #3
  401e16:	b12c      	cbz	r4, 401e24 <memset+0x90>
  401e18:	b2c9      	uxtb	r1, r1
  401e1a:	441c      	add	r4, r3
  401e1c:	f803 1b01 	strb.w	r1, [r3], #1
  401e20:	42a3      	cmp	r3, r4
  401e22:	d1fb      	bne.n	401e1c <memset+0x88>
  401e24:	bc70      	pop	{r4, r5, r6}
  401e26:	4770      	bx	lr
  401e28:	4614      	mov	r4, r2
  401e2a:	4603      	mov	r3, r0
  401e2c:	e7c2      	b.n	401db4 <memset+0x20>
  401e2e:	bf00      	nop

00401e30 <setbuf>:
  401e30:	2900      	cmp	r1, #0
  401e32:	bf0c      	ite	eq
  401e34:	2202      	moveq	r2, #2
  401e36:	2200      	movne	r2, #0
  401e38:	f44f 6380 	mov.w	r3, #1024	; 0x400
  401e3c:	f000 b800 	b.w	401e40 <setvbuf>

00401e40 <setvbuf>:
  401e40:	e92d 43f0 	stmdb	sp!, {r4, r5, r6, r7, r8, r9, lr}
  401e44:	4c51      	ldr	r4, [pc, #324]	; (401f8c <setvbuf+0x14c>)
  401e46:	6825      	ldr	r5, [r4, #0]
  401e48:	b083      	sub	sp, #12
  401e4a:	4604      	mov	r4, r0
  401e4c:	460f      	mov	r7, r1
  401e4e:	4690      	mov	r8, r2
  401e50:	461e      	mov	r6, r3
  401e52:	b115      	cbz	r5, 401e5a <setvbuf+0x1a>
  401e54:	6bab      	ldr	r3, [r5, #56]	; 0x38
  401e56:	2b00      	cmp	r3, #0
  401e58:	d079      	beq.n	401f4e <setvbuf+0x10e>
  401e5a:	f1b8 0f02 	cmp.w	r8, #2
  401e5e:	d004      	beq.n	401e6a <setvbuf+0x2a>
  401e60:	f1b8 0f01 	cmp.w	r8, #1
  401e64:	d87f      	bhi.n	401f66 <setvbuf+0x126>
  401e66:	2e00      	cmp	r6, #0
  401e68:	db7d      	blt.n	401f66 <setvbuf+0x126>
  401e6a:	4621      	mov	r1, r4
  401e6c:	4628      	mov	r0, r5
  401e6e:	f000 f943 	bl	4020f8 <_fflush_r>
  401e72:	6b21      	ldr	r1, [r4, #48]	; 0x30
  401e74:	b141      	cbz	r1, 401e88 <setvbuf+0x48>
  401e76:	f104 0340 	add.w	r3, r4, #64	; 0x40
  401e7a:	4299      	cmp	r1, r3
  401e7c:	d002      	beq.n	401e84 <setvbuf+0x44>
  401e7e:	4628      	mov	r0, r5
  401e80:	f000 fa3a 	bl	4022f8 <_free_r>
  401e84:	2300      	movs	r3, #0
  401e86:	6323      	str	r3, [r4, #48]	; 0x30
  401e88:	f9b4 300c 	ldrsh.w	r3, [r4, #12]
  401e8c:	2200      	movs	r2, #0
  401e8e:	61a2      	str	r2, [r4, #24]
  401e90:	6062      	str	r2, [r4, #4]
  401e92:	061a      	lsls	r2, r3, #24
  401e94:	d454      	bmi.n	401f40 <setvbuf+0x100>
  401e96:	f423 634a 	bic.w	r3, r3, #3232	; 0xca0
  401e9a:	f023 0303 	bic.w	r3, r3, #3
  401e9e:	f1b8 0f02 	cmp.w	r8, #2
  401ea2:	81a3      	strh	r3, [r4, #12]
  401ea4:	d039      	beq.n	401f1a <setvbuf+0xda>
  401ea6:	ab01      	add	r3, sp, #4
  401ea8:	466a      	mov	r2, sp
  401eaa:	4621      	mov	r1, r4
  401eac:	4628      	mov	r0, r5
  401eae:	f000 fb35 	bl	40251c <__swhatbuf_r>
  401eb2:	89a3      	ldrh	r3, [r4, #12]
  401eb4:	4318      	orrs	r0, r3
  401eb6:	81a0      	strh	r0, [r4, #12]
  401eb8:	b326      	cbz	r6, 401f04 <setvbuf+0xc4>
  401eba:	b327      	cbz	r7, 401f06 <setvbuf+0xc6>
  401ebc:	6bab      	ldr	r3, [r5, #56]	; 0x38
  401ebe:	2b00      	cmp	r3, #0
  401ec0:	d04d      	beq.n	401f5e <setvbuf+0x11e>
  401ec2:	9b00      	ldr	r3, [sp, #0]
  401ec4:	f9b4 000c 	ldrsh.w	r0, [r4, #12]
  401ec8:	6027      	str	r7, [r4, #0]
  401eca:	429e      	cmp	r6, r3
  401ecc:	bf1c      	itt	ne
  401ece:	f440 6000 	orrne.w	r0, r0, #2048	; 0x800
  401ed2:	81a0      	strhne	r0, [r4, #12]
  401ed4:	f1b8 0f01 	cmp.w	r8, #1
  401ed8:	bf08      	it	eq
  401eda:	f040 0001 	orreq.w	r0, r0, #1
  401ede:	b283      	uxth	r3, r0
  401ee0:	bf08      	it	eq
  401ee2:	81a0      	strheq	r0, [r4, #12]
  401ee4:	f003 0008 	and.w	r0, r3, #8
  401ee8:	b280      	uxth	r0, r0
  401eea:	6127      	str	r7, [r4, #16]
  401eec:	6166      	str	r6, [r4, #20]
  401eee:	b318      	cbz	r0, 401f38 <setvbuf+0xf8>
  401ef0:	f013 0001 	ands.w	r0, r3, #1
  401ef4:	d02f      	beq.n	401f56 <setvbuf+0x116>
  401ef6:	2000      	movs	r0, #0
  401ef8:	4276      	negs	r6, r6
  401efa:	61a6      	str	r6, [r4, #24]
  401efc:	60a0      	str	r0, [r4, #8]
  401efe:	b003      	add	sp, #12
  401f00:	e8bd 83f0 	ldmia.w	sp!, {r4, r5, r6, r7, r8, r9, pc}
  401f04:	9e00      	ldr	r6, [sp, #0]
  401f06:	4630      	mov	r0, r6
  401f08:	f000 fb38 	bl	40257c <malloc>
  401f0c:	4607      	mov	r7, r0
  401f0e:	b368      	cbz	r0, 401f6c <setvbuf+0x12c>
  401f10:	89a3      	ldrh	r3, [r4, #12]
  401f12:	f043 0380 	orr.w	r3, r3, #128	; 0x80
  401f16:	81a3      	strh	r3, [r4, #12]
  401f18:	e7d0      	b.n	401ebc <setvbuf+0x7c>
  401f1a:	2000      	movs	r0, #0
  401f1c:	f104 0243 	add.w	r2, r4, #67	; 0x43
  401f20:	f043 0302 	orr.w	r3, r3, #2
  401f24:	2500      	movs	r5, #0
  401f26:	2101      	movs	r1, #1
  401f28:	81a3      	strh	r3, [r4, #12]
  401f2a:	60a5      	str	r5, [r4, #8]
  401f2c:	6022      	str	r2, [r4, #0]
  401f2e:	6122      	str	r2, [r4, #16]
  401f30:	6161      	str	r1, [r4, #20]
  401f32:	b003      	add	sp, #12
  401f34:	e8bd 83f0 	ldmia.w	sp!, {r4, r5, r6, r7, r8, r9, pc}
  401f38:	60a0      	str	r0, [r4, #8]
  401f3a:	b003      	add	sp, #12
  401f3c:	e8bd 83f0 	ldmia.w	sp!, {r4, r5, r6, r7, r8, r9, pc}
  401f40:	6921      	ldr	r1, [r4, #16]
  401f42:	4628      	mov	r0, r5
  401f44:	f000 f9d8 	bl	4022f8 <_free_r>
  401f48:	f9b4 300c 	ldrsh.w	r3, [r4, #12]
  401f4c:	e7a3      	b.n	401e96 <setvbuf+0x56>
  401f4e:	4628      	mov	r0, r5
  401f50:	f000 f966 	bl	402220 <__sinit>
  401f54:	e781      	b.n	401e5a <setvbuf+0x1a>
  401f56:	60a6      	str	r6, [r4, #8]
  401f58:	b003      	add	sp, #12
  401f5a:	e8bd 83f0 	ldmia.w	sp!, {r4, r5, r6, r7, r8, r9, pc}
  401f5e:	4628      	mov	r0, r5
  401f60:	f000 f95e 	bl	402220 <__sinit>
  401f64:	e7ad      	b.n	401ec2 <setvbuf+0x82>
  401f66:	f04f 30ff 	mov.w	r0, #4294967295
  401f6a:	e7e2      	b.n	401f32 <setvbuf+0xf2>
  401f6c:	f8dd 9000 	ldr.w	r9, [sp]
  401f70:	45b1      	cmp	r9, r6
  401f72:	d006      	beq.n	401f82 <setvbuf+0x142>
  401f74:	4648      	mov	r0, r9
  401f76:	f000 fb01 	bl	40257c <malloc>
  401f7a:	4607      	mov	r7, r0
  401f7c:	b108      	cbz	r0, 401f82 <setvbuf+0x142>
  401f7e:	464e      	mov	r6, r9
  401f80:	e7c6      	b.n	401f10 <setvbuf+0xd0>
  401f82:	f9b4 300c 	ldrsh.w	r3, [r4, #12]
  401f86:	f04f 30ff 	mov.w	r0, #4294967295
  401f8a:	e7c7      	b.n	401f1c <setvbuf+0xdc>
  401f8c:	20400430 	.word	0x20400430

00401f90 <register_fini>:
  401f90:	4b02      	ldr	r3, [pc, #8]	; (401f9c <register_fini+0xc>)
  401f92:	b113      	cbz	r3, 401f9a <register_fini+0xa>
  401f94:	4802      	ldr	r0, [pc, #8]	; (401fa0 <register_fini+0x10>)
  401f96:	f000 b805 	b.w	401fa4 <atexit>
  401f9a:	4770      	bx	lr
  401f9c:	00000000 	.word	0x00000000
  401fa0:	00402235 	.word	0x00402235

00401fa4 <atexit>:
  401fa4:	2300      	movs	r3, #0
  401fa6:	4601      	mov	r1, r0
  401fa8:	461a      	mov	r2, r3
  401faa:	4618      	mov	r0, r3
  401fac:	f000 be16 	b.w	402bdc <__register_exitproc>

00401fb0 <__sflush_r>:
  401fb0:	f9b1 300c 	ldrsh.w	r3, [r1, #12]
  401fb4:	b29a      	uxth	r2, r3
  401fb6:	e92d 41f0 	stmdb	sp!, {r4, r5, r6, r7, r8, lr}
  401fba:	460d      	mov	r5, r1
  401fbc:	0711      	lsls	r1, r2, #28
  401fbe:	4680      	mov	r8, r0
  401fc0:	d43c      	bmi.n	40203c <__sflush_r+0x8c>
  401fc2:	686a      	ldr	r2, [r5, #4]
  401fc4:	f443 6300 	orr.w	r3, r3, #2048	; 0x800
  401fc8:	2a00      	cmp	r2, #0
  401fca:	81ab      	strh	r3, [r5, #12]
  401fcc:	dd73      	ble.n	4020b6 <__sflush_r+0x106>
  401fce:	6aac      	ldr	r4, [r5, #40]	; 0x28
  401fd0:	2c00      	cmp	r4, #0
  401fd2:	d04b      	beq.n	40206c <__sflush_r+0xbc>
  401fd4:	b29b      	uxth	r3, r3
  401fd6:	f403 5280 	and.w	r2, r3, #4096	; 0x1000
  401fda:	2100      	movs	r1, #0
  401fdc:	b292      	uxth	r2, r2
  401fde:	f8d8 6000 	ldr.w	r6, [r8]
  401fe2:	f8c8 1000 	str.w	r1, [r8]
  401fe6:	2a00      	cmp	r2, #0
  401fe8:	d069      	beq.n	4020be <__sflush_r+0x10e>
  401fea:	6d2a      	ldr	r2, [r5, #80]	; 0x50
  401fec:	075f      	lsls	r7, r3, #29
  401fee:	d505      	bpl.n	401ffc <__sflush_r+0x4c>
  401ff0:	6869      	ldr	r1, [r5, #4]
  401ff2:	6b2b      	ldr	r3, [r5, #48]	; 0x30
  401ff4:	1a52      	subs	r2, r2, r1
  401ff6:	b10b      	cbz	r3, 401ffc <__sflush_r+0x4c>
  401ff8:	6beb      	ldr	r3, [r5, #60]	; 0x3c
  401ffa:	1ad2      	subs	r2, r2, r3
  401ffc:	2300      	movs	r3, #0
  401ffe:	69e9      	ldr	r1, [r5, #28]
  402000:	4640      	mov	r0, r8
  402002:	47a0      	blx	r4
  402004:	1c44      	adds	r4, r0, #1
  402006:	d03c      	beq.n	402082 <__sflush_r+0xd2>
  402008:	f9b5 300c 	ldrsh.w	r3, [r5, #12]
  40200c:	692a      	ldr	r2, [r5, #16]
  40200e:	602a      	str	r2, [r5, #0]
  402010:	f423 6300 	bic.w	r3, r3, #2048	; 0x800
  402014:	2200      	movs	r2, #0
  402016:	81ab      	strh	r3, [r5, #12]
  402018:	04db      	lsls	r3, r3, #19
  40201a:	606a      	str	r2, [r5, #4]
  40201c:	d449      	bmi.n	4020b2 <__sflush_r+0x102>
  40201e:	6b29      	ldr	r1, [r5, #48]	; 0x30
  402020:	f8c8 6000 	str.w	r6, [r8]
  402024:	b311      	cbz	r1, 40206c <__sflush_r+0xbc>
  402026:	f105 0340 	add.w	r3, r5, #64	; 0x40
  40202a:	4299      	cmp	r1, r3
  40202c:	d002      	beq.n	402034 <__sflush_r+0x84>
  40202e:	4640      	mov	r0, r8
  402030:	f000 f962 	bl	4022f8 <_free_r>
  402034:	2000      	movs	r0, #0
  402036:	6328      	str	r0, [r5, #48]	; 0x30
  402038:	e8bd 81f0 	ldmia.w	sp!, {r4, r5, r6, r7, r8, pc}
  40203c:	692e      	ldr	r6, [r5, #16]
  40203e:	b1ae      	cbz	r6, 40206c <__sflush_r+0xbc>
  402040:	682c      	ldr	r4, [r5, #0]
  402042:	602e      	str	r6, [r5, #0]
  402044:	0790      	lsls	r0, r2, #30
  402046:	bf0c      	ite	eq
  402048:	696b      	ldreq	r3, [r5, #20]
  40204a:	2300      	movne	r3, #0
  40204c:	1ba4      	subs	r4, r4, r6
  40204e:	60ab      	str	r3, [r5, #8]
  402050:	e00a      	b.n	402068 <__sflush_r+0xb8>
  402052:	4623      	mov	r3, r4
  402054:	4632      	mov	r2, r6
  402056:	6a6f      	ldr	r7, [r5, #36]	; 0x24
  402058:	69e9      	ldr	r1, [r5, #28]
  40205a:	4640      	mov	r0, r8
  40205c:	47b8      	blx	r7
  40205e:	2800      	cmp	r0, #0
  402060:	eba4 0400 	sub.w	r4, r4, r0
  402064:	4406      	add	r6, r0
  402066:	dd04      	ble.n	402072 <__sflush_r+0xc2>
  402068:	2c00      	cmp	r4, #0
  40206a:	dcf2      	bgt.n	402052 <__sflush_r+0xa2>
  40206c:	2000      	movs	r0, #0
  40206e:	e8bd 81f0 	ldmia.w	sp!, {r4, r5, r6, r7, r8, pc}
  402072:	89ab      	ldrh	r3, [r5, #12]
  402074:	f043 0340 	orr.w	r3, r3, #64	; 0x40
  402078:	81ab      	strh	r3, [r5, #12]
  40207a:	f04f 30ff 	mov.w	r0, #4294967295
  40207e:	e8bd 81f0 	ldmia.w	sp!, {r4, r5, r6, r7, r8, pc}
  402082:	f8d8 2000 	ldr.w	r2, [r8]
  402086:	2a1d      	cmp	r2, #29
  402088:	d8f3      	bhi.n	402072 <__sflush_r+0xc2>
  40208a:	4b1a      	ldr	r3, [pc, #104]	; (4020f4 <__sflush_r+0x144>)
  40208c:	40d3      	lsrs	r3, r2
  40208e:	f003 0301 	and.w	r3, r3, #1
  402092:	f083 0401 	eor.w	r4, r3, #1
  402096:	2b00      	cmp	r3, #0
  402098:	d0eb      	beq.n	402072 <__sflush_r+0xc2>
  40209a:	f9b5 300c 	ldrsh.w	r3, [r5, #12]
  40209e:	6929      	ldr	r1, [r5, #16]
  4020a0:	6029      	str	r1, [r5, #0]
  4020a2:	f423 6300 	bic.w	r3, r3, #2048	; 0x800
  4020a6:	04d9      	lsls	r1, r3, #19
  4020a8:	606c      	str	r4, [r5, #4]
  4020aa:	81ab      	strh	r3, [r5, #12]
  4020ac:	d5b7      	bpl.n	40201e <__sflush_r+0x6e>
  4020ae:	2a00      	cmp	r2, #0
  4020b0:	d1b5      	bne.n	40201e <__sflush_r+0x6e>
  4020b2:	6528      	str	r0, [r5, #80]	; 0x50
  4020b4:	e7b3      	b.n	40201e <__sflush_r+0x6e>
  4020b6:	6bea      	ldr	r2, [r5, #60]	; 0x3c
  4020b8:	2a00      	cmp	r2, #0
  4020ba:	dc88      	bgt.n	401fce <__sflush_r+0x1e>
  4020bc:	e7d6      	b.n	40206c <__sflush_r+0xbc>
  4020be:	2301      	movs	r3, #1
  4020c0:	69e9      	ldr	r1, [r5, #28]
  4020c2:	4640      	mov	r0, r8
  4020c4:	47a0      	blx	r4
  4020c6:	1c43      	adds	r3, r0, #1
  4020c8:	4602      	mov	r2, r0
  4020ca:	d002      	beq.n	4020d2 <__sflush_r+0x122>
  4020cc:	89ab      	ldrh	r3, [r5, #12]
  4020ce:	6aac      	ldr	r4, [r5, #40]	; 0x28
  4020d0:	e78c      	b.n	401fec <__sflush_r+0x3c>
  4020d2:	f8d8 3000 	ldr.w	r3, [r8]
  4020d6:	2b00      	cmp	r3, #0
  4020d8:	d0f8      	beq.n	4020cc <__sflush_r+0x11c>
  4020da:	2b1d      	cmp	r3, #29
  4020dc:	d001      	beq.n	4020e2 <__sflush_r+0x132>
  4020de:	2b16      	cmp	r3, #22
  4020e0:	d102      	bne.n	4020e8 <__sflush_r+0x138>
  4020e2:	f8c8 6000 	str.w	r6, [r8]
  4020e6:	e7c1      	b.n	40206c <__sflush_r+0xbc>
  4020e8:	89ab      	ldrh	r3, [r5, #12]
  4020ea:	f043 0340 	orr.w	r3, r3, #64	; 0x40
  4020ee:	81ab      	strh	r3, [r5, #12]
  4020f0:	e8bd 81f0 	ldmia.w	sp!, {r4, r5, r6, r7, r8, pc}
  4020f4:	20400001 	.word	0x20400001

004020f8 <_fflush_r>:
  4020f8:	b510      	push	{r4, lr}
  4020fa:	4604      	mov	r4, r0
  4020fc:	b082      	sub	sp, #8
  4020fe:	b108      	cbz	r0, 402104 <_fflush_r+0xc>
  402100:	6b83      	ldr	r3, [r0, #56]	; 0x38
  402102:	b153      	cbz	r3, 40211a <_fflush_r+0x22>
  402104:	f9b1 000c 	ldrsh.w	r0, [r1, #12]
  402108:	b908      	cbnz	r0, 40210e <_fflush_r+0x16>
  40210a:	b002      	add	sp, #8
  40210c:	bd10      	pop	{r4, pc}
  40210e:	4620      	mov	r0, r4
  402110:	b002      	add	sp, #8
  402112:	e8bd 4010 	ldmia.w	sp!, {r4, lr}
  402116:	f7ff bf4b 	b.w	401fb0 <__sflush_r>
  40211a:	9101      	str	r1, [sp, #4]
  40211c:	f000 f880 	bl	402220 <__sinit>
  402120:	9901      	ldr	r1, [sp, #4]
  402122:	e7ef      	b.n	402104 <_fflush_r+0xc>

00402124 <_cleanup_r>:
  402124:	4901      	ldr	r1, [pc, #4]	; (40212c <_cleanup_r+0x8>)
  402126:	f000 b9cf 	b.w	4024c8 <_fwalk_reent>
  40212a:	bf00      	nop
  40212c:	00402ca5 	.word	0x00402ca5

00402130 <__sinit.part.1>:
  402130:	e92d 4ff0 	stmdb	sp!, {r4, r5, r6, r7, r8, r9, sl, fp, lr}
  402134:	4b35      	ldr	r3, [pc, #212]	; (40220c <__sinit.part.1+0xdc>)
  402136:	6845      	ldr	r5, [r0, #4]
  402138:	63c3      	str	r3, [r0, #60]	; 0x3c
  40213a:	2400      	movs	r4, #0
  40213c:	4607      	mov	r7, r0
  40213e:	f500 723b 	add.w	r2, r0, #748	; 0x2ec
  402142:	2304      	movs	r3, #4
  402144:	2103      	movs	r1, #3
  402146:	f8c0 12e4 	str.w	r1, [r0, #740]	; 0x2e4
  40214a:	f8c0 22e8 	str.w	r2, [r0, #744]	; 0x2e8
  40214e:	f8c0 42e0 	str.w	r4, [r0, #736]	; 0x2e0
  402152:	b083      	sub	sp, #12
  402154:	602c      	str	r4, [r5, #0]
  402156:	606c      	str	r4, [r5, #4]
  402158:	60ac      	str	r4, [r5, #8]
  40215a:	666c      	str	r4, [r5, #100]	; 0x64
  40215c:	81ec      	strh	r4, [r5, #14]
  40215e:	612c      	str	r4, [r5, #16]
  402160:	616c      	str	r4, [r5, #20]
  402162:	61ac      	str	r4, [r5, #24]
  402164:	81ab      	strh	r3, [r5, #12]
  402166:	4621      	mov	r1, r4
  402168:	f105 005c 	add.w	r0, r5, #92	; 0x5c
  40216c:	2208      	movs	r2, #8
  40216e:	f7ff fe11 	bl	401d94 <memset>
  402172:	68be      	ldr	r6, [r7, #8]
  402174:	f8df b098 	ldr.w	fp, [pc, #152]	; 402210 <__sinit.part.1+0xe0>
  402178:	f8df a098 	ldr.w	sl, [pc, #152]	; 402214 <__sinit.part.1+0xe4>
  40217c:	f8df 9098 	ldr.w	r9, [pc, #152]	; 402218 <__sinit.part.1+0xe8>
  402180:	f8df 8098 	ldr.w	r8, [pc, #152]	; 40221c <__sinit.part.1+0xec>
  402184:	f8c5 b020 	str.w	fp, [r5, #32]
  402188:	2301      	movs	r3, #1
  40218a:	2209      	movs	r2, #9
  40218c:	f8c5 a024 	str.w	sl, [r5, #36]	; 0x24
  402190:	f8c5 9028 	str.w	r9, [r5, #40]	; 0x28
  402194:	f8c5 802c 	str.w	r8, [r5, #44]	; 0x2c
  402198:	61ed      	str	r5, [r5, #28]
  40219a:	4621      	mov	r1, r4
  40219c:	81f3      	strh	r3, [r6, #14]
  40219e:	81b2      	strh	r2, [r6, #12]
  4021a0:	f106 005c 	add.w	r0, r6, #92	; 0x5c
  4021a4:	6034      	str	r4, [r6, #0]
  4021a6:	6074      	str	r4, [r6, #4]
  4021a8:	60b4      	str	r4, [r6, #8]
  4021aa:	6674      	str	r4, [r6, #100]	; 0x64
  4021ac:	6134      	str	r4, [r6, #16]
  4021ae:	6174      	str	r4, [r6, #20]
  4021b0:	61b4      	str	r4, [r6, #24]
  4021b2:	2208      	movs	r2, #8
  4021b4:	9301      	str	r3, [sp, #4]
  4021b6:	f7ff fded 	bl	401d94 <memset>
  4021ba:	68fd      	ldr	r5, [r7, #12]
  4021bc:	61f6      	str	r6, [r6, #28]
  4021be:	2012      	movs	r0, #18
  4021c0:	2202      	movs	r2, #2
  4021c2:	f8c6 b020 	str.w	fp, [r6, #32]
  4021c6:	f8c6 a024 	str.w	sl, [r6, #36]	; 0x24
  4021ca:	f8c6 9028 	str.w	r9, [r6, #40]	; 0x28
  4021ce:	f8c6 802c 	str.w	r8, [r6, #44]	; 0x2c
  4021d2:	4621      	mov	r1, r4
  4021d4:	81a8      	strh	r0, [r5, #12]
  4021d6:	81ea      	strh	r2, [r5, #14]
  4021d8:	602c      	str	r4, [r5, #0]
  4021da:	606c      	str	r4, [r5, #4]
  4021dc:	60ac      	str	r4, [r5, #8]
  4021de:	666c      	str	r4, [r5, #100]	; 0x64
  4021e0:	612c      	str	r4, [r5, #16]
  4021e2:	616c      	str	r4, [r5, #20]
  4021e4:	61ac      	str	r4, [r5, #24]
  4021e6:	f105 005c 	add.w	r0, r5, #92	; 0x5c
  4021ea:	2208      	movs	r2, #8
  4021ec:	f7ff fdd2 	bl	401d94 <memset>
  4021f0:	9b01      	ldr	r3, [sp, #4]
  4021f2:	61ed      	str	r5, [r5, #28]
  4021f4:	f8c5 b020 	str.w	fp, [r5, #32]
  4021f8:	f8c5 a024 	str.w	sl, [r5, #36]	; 0x24
  4021fc:	f8c5 9028 	str.w	r9, [r5, #40]	; 0x28
  402200:	f8c5 802c 	str.w	r8, [r5, #44]	; 0x2c
  402204:	63bb      	str	r3, [r7, #56]	; 0x38
  402206:	b003      	add	sp, #12
  402208:	e8bd 8ff0 	ldmia.w	sp!, {r4, r5, r6, r7, r8, r9, sl, fp, pc}
  40220c:	00402125 	.word	0x00402125
  402210:	00402b29 	.word	0x00402b29
  402214:	00402b4d 	.word	0x00402b4d
  402218:	00402b89 	.word	0x00402b89
  40221c:	00402ba9 	.word	0x00402ba9

00402220 <__sinit>:
  402220:	6b83      	ldr	r3, [r0, #56]	; 0x38
  402222:	b103      	cbz	r3, 402226 <__sinit+0x6>
  402224:	4770      	bx	lr
  402226:	f7ff bf83 	b.w	402130 <__sinit.part.1>
  40222a:	bf00      	nop

0040222c <__sfp_lock_acquire>:
  40222c:	4770      	bx	lr
  40222e:	bf00      	nop

00402230 <__sfp_lock_release>:
  402230:	4770      	bx	lr
  402232:	bf00      	nop

00402234 <__libc_fini_array>:
  402234:	b538      	push	{r3, r4, r5, lr}
  402236:	4d07      	ldr	r5, [pc, #28]	; (402254 <__libc_fini_array+0x20>)
  402238:	4c07      	ldr	r4, [pc, #28]	; (402258 <__libc_fini_array+0x24>)
  40223a:	1b2c      	subs	r4, r5, r4
  40223c:	10a4      	asrs	r4, r4, #2
  40223e:	d005      	beq.n	40224c <__libc_fini_array+0x18>
  402240:	3c01      	subs	r4, #1
  402242:	f855 3d04 	ldr.w	r3, [r5, #-4]!
  402246:	4798      	blx	r3
  402248:	2c00      	cmp	r4, #0
  40224a:	d1f9      	bne.n	402240 <__libc_fini_array+0xc>
  40224c:	e8bd 4038 	ldmia.w	sp!, {r3, r4, r5, lr}
  402250:	f000 bdb8 	b.w	402dc4 <_fini>
  402254:	00402dd4 	.word	0x00402dd4
  402258:	00402dd0 	.word	0x00402dd0

0040225c <_malloc_trim_r>:
  40225c:	b5f8      	push	{r3, r4, r5, r6, r7, lr}
  40225e:	4f23      	ldr	r7, [pc, #140]	; (4022ec <_malloc_trim_r+0x90>)
  402260:	460c      	mov	r4, r1
  402262:	4606      	mov	r6, r0
  402264:	f000 fc4a 	bl	402afc <__malloc_lock>
  402268:	68bb      	ldr	r3, [r7, #8]
  40226a:	685d      	ldr	r5, [r3, #4]
  40226c:	f025 0503 	bic.w	r5, r5, #3
  402270:	1b29      	subs	r1, r5, r4
  402272:	f601 71ef 	addw	r1, r1, #4079	; 0xfef
  402276:	f421 617f 	bic.w	r1, r1, #4080	; 0xff0
  40227a:	f021 010f 	bic.w	r1, r1, #15
  40227e:	f5a1 5480 	sub.w	r4, r1, #4096	; 0x1000
  402282:	f5b4 5f80 	cmp.w	r4, #4096	; 0x1000
  402286:	db07      	blt.n	402298 <_malloc_trim_r+0x3c>
  402288:	2100      	movs	r1, #0
  40228a:	4630      	mov	r0, r6
  40228c:	f000 fc3a 	bl	402b04 <_sbrk_r>
  402290:	68bb      	ldr	r3, [r7, #8]
  402292:	442b      	add	r3, r5
  402294:	4298      	cmp	r0, r3
  402296:	d004      	beq.n	4022a2 <_malloc_trim_r+0x46>
  402298:	4630      	mov	r0, r6
  40229a:	f000 fc31 	bl	402b00 <__malloc_unlock>
  40229e:	2000      	movs	r0, #0
  4022a0:	bdf8      	pop	{r3, r4, r5, r6, r7, pc}
  4022a2:	4261      	negs	r1, r4
  4022a4:	4630      	mov	r0, r6
  4022a6:	f000 fc2d 	bl	402b04 <_sbrk_r>
  4022aa:	3001      	adds	r0, #1
  4022ac:	d00d      	beq.n	4022ca <_malloc_trim_r+0x6e>
  4022ae:	4b10      	ldr	r3, [pc, #64]	; (4022f0 <_malloc_trim_r+0x94>)
  4022b0:	68ba      	ldr	r2, [r7, #8]
  4022b2:	6819      	ldr	r1, [r3, #0]
  4022b4:	1b2d      	subs	r5, r5, r4
  4022b6:	f045 0501 	orr.w	r5, r5, #1
  4022ba:	4630      	mov	r0, r6
  4022bc:	1b09      	subs	r1, r1, r4
  4022be:	6055      	str	r5, [r2, #4]
  4022c0:	6019      	str	r1, [r3, #0]
  4022c2:	f000 fc1d 	bl	402b00 <__malloc_unlock>
  4022c6:	2001      	movs	r0, #1
  4022c8:	bdf8      	pop	{r3, r4, r5, r6, r7, pc}
  4022ca:	2100      	movs	r1, #0
  4022cc:	4630      	mov	r0, r6
  4022ce:	f000 fc19 	bl	402b04 <_sbrk_r>
  4022d2:	68ba      	ldr	r2, [r7, #8]
  4022d4:	1a83      	subs	r3, r0, r2
  4022d6:	2b0f      	cmp	r3, #15
  4022d8:	ddde      	ble.n	402298 <_malloc_trim_r+0x3c>
  4022da:	4c06      	ldr	r4, [pc, #24]	; (4022f4 <_malloc_trim_r+0x98>)
  4022dc:	4904      	ldr	r1, [pc, #16]	; (4022f0 <_malloc_trim_r+0x94>)
  4022de:	6824      	ldr	r4, [r4, #0]
  4022e0:	f043 0301 	orr.w	r3, r3, #1
  4022e4:	1b00      	subs	r0, r0, r4
  4022e6:	6053      	str	r3, [r2, #4]
  4022e8:	6008      	str	r0, [r1, #0]
  4022ea:	e7d5      	b.n	402298 <_malloc_trim_r+0x3c>
  4022ec:	20400434 	.word	0x20400434
  4022f0:	204008e4 	.word	0x204008e4
  4022f4:	20400840 	.word	0x20400840

004022f8 <_free_r>:
  4022f8:	2900      	cmp	r1, #0
  4022fa:	d045      	beq.n	402388 <_free_r+0x90>
  4022fc:	e92d 41f0 	stmdb	sp!, {r4, r5, r6, r7, r8, lr}
  402300:	460d      	mov	r5, r1
  402302:	4680      	mov	r8, r0
  402304:	f000 fbfa 	bl	402afc <__malloc_lock>
  402308:	f855 7c04 	ldr.w	r7, [r5, #-4]
  40230c:	496a      	ldr	r1, [pc, #424]	; (4024b8 <_free_r+0x1c0>)
  40230e:	f027 0301 	bic.w	r3, r7, #1
  402312:	f1a5 0408 	sub.w	r4, r5, #8
  402316:	18e2      	adds	r2, r4, r3
  402318:	688e      	ldr	r6, [r1, #8]
  40231a:	6850      	ldr	r0, [r2, #4]
  40231c:	42b2      	cmp	r2, r6
  40231e:	f020 0003 	bic.w	r0, r0, #3
  402322:	d062      	beq.n	4023ea <_free_r+0xf2>
  402324:	07fe      	lsls	r6, r7, #31
  402326:	6050      	str	r0, [r2, #4]
  402328:	d40b      	bmi.n	402342 <_free_r+0x4a>
  40232a:	f855 7c08 	ldr.w	r7, [r5, #-8]
  40232e:	1be4      	subs	r4, r4, r7
  402330:	f101 0e08 	add.w	lr, r1, #8
  402334:	68a5      	ldr	r5, [r4, #8]
  402336:	4575      	cmp	r5, lr
  402338:	443b      	add	r3, r7
  40233a:	d06f      	beq.n	40241c <_free_r+0x124>
  40233c:	68e7      	ldr	r7, [r4, #12]
  40233e:	60ef      	str	r7, [r5, #12]
  402340:	60bd      	str	r5, [r7, #8]
  402342:	1815      	adds	r5, r2, r0
  402344:	686d      	ldr	r5, [r5, #4]
  402346:	07ed      	lsls	r5, r5, #31
  402348:	d542      	bpl.n	4023d0 <_free_r+0xd8>
  40234a:	f043 0201 	orr.w	r2, r3, #1
  40234e:	6062      	str	r2, [r4, #4]
  402350:	50e3      	str	r3, [r4, r3]
  402352:	f5b3 7f00 	cmp.w	r3, #512	; 0x200
  402356:	d218      	bcs.n	40238a <_free_r+0x92>
  402358:	08db      	lsrs	r3, r3, #3
  40235a:	1c5a      	adds	r2, r3, #1
  40235c:	684d      	ldr	r5, [r1, #4]
  40235e:	f851 7032 	ldr.w	r7, [r1, r2, lsl #3]
  402362:	60a7      	str	r7, [r4, #8]
  402364:	2001      	movs	r0, #1
  402366:	109b      	asrs	r3, r3, #2
  402368:	fa00 f303 	lsl.w	r3, r0, r3
  40236c:	eb01 00c2 	add.w	r0, r1, r2, lsl #3
  402370:	431d      	orrs	r5, r3
  402372:	3808      	subs	r0, #8
  402374:	60e0      	str	r0, [r4, #12]
  402376:	604d      	str	r5, [r1, #4]
  402378:	f841 4032 	str.w	r4, [r1, r2, lsl #3]
  40237c:	60fc      	str	r4, [r7, #12]
  40237e:	4640      	mov	r0, r8
  402380:	e8bd 41f0 	ldmia.w	sp!, {r4, r5, r6, r7, r8, lr}
  402384:	f000 bbbc 	b.w	402b00 <__malloc_unlock>
  402388:	4770      	bx	lr
  40238a:	0a5a      	lsrs	r2, r3, #9
  40238c:	2a04      	cmp	r2, #4
  40238e:	d853      	bhi.n	402438 <_free_r+0x140>
  402390:	099a      	lsrs	r2, r3, #6
  402392:	f102 0739 	add.w	r7, r2, #57	; 0x39
  402396:	007f      	lsls	r7, r7, #1
  402398:	f102 0538 	add.w	r5, r2, #56	; 0x38
  40239c:	eb01 0087 	add.w	r0, r1, r7, lsl #2
  4023a0:	f851 2027 	ldr.w	r2, [r1, r7, lsl #2]
  4023a4:	4944      	ldr	r1, [pc, #272]	; (4024b8 <_free_r+0x1c0>)
  4023a6:	3808      	subs	r0, #8
  4023a8:	4290      	cmp	r0, r2
  4023aa:	d04d      	beq.n	402448 <_free_r+0x150>
  4023ac:	6851      	ldr	r1, [r2, #4]
  4023ae:	f021 0103 	bic.w	r1, r1, #3
  4023b2:	428b      	cmp	r3, r1
  4023b4:	d202      	bcs.n	4023bc <_free_r+0xc4>
  4023b6:	6892      	ldr	r2, [r2, #8]
  4023b8:	4290      	cmp	r0, r2
  4023ba:	d1f7      	bne.n	4023ac <_free_r+0xb4>
  4023bc:	68d0      	ldr	r0, [r2, #12]
  4023be:	60e0      	str	r0, [r4, #12]
  4023c0:	60a2      	str	r2, [r4, #8]
  4023c2:	6084      	str	r4, [r0, #8]
  4023c4:	60d4      	str	r4, [r2, #12]
  4023c6:	4640      	mov	r0, r8
  4023c8:	e8bd 41f0 	ldmia.w	sp!, {r4, r5, r6, r7, r8, lr}
  4023cc:	f000 bb98 	b.w	402b00 <__malloc_unlock>
  4023d0:	6895      	ldr	r5, [r2, #8]
  4023d2:	4f3a      	ldr	r7, [pc, #232]	; (4024bc <_free_r+0x1c4>)
  4023d4:	42bd      	cmp	r5, r7
  4023d6:	4403      	add	r3, r0
  4023d8:	d03f      	beq.n	40245a <_free_r+0x162>
  4023da:	68d0      	ldr	r0, [r2, #12]
  4023dc:	60e8      	str	r0, [r5, #12]
  4023de:	f043 0201 	orr.w	r2, r3, #1
  4023e2:	6085      	str	r5, [r0, #8]
  4023e4:	6062      	str	r2, [r4, #4]
  4023e6:	50e3      	str	r3, [r4, r3]
  4023e8:	e7b3      	b.n	402352 <_free_r+0x5a>
  4023ea:	07ff      	lsls	r7, r7, #31
  4023ec:	4403      	add	r3, r0
  4023ee:	d407      	bmi.n	402400 <_free_r+0x108>
  4023f0:	f855 2c08 	ldr.w	r2, [r5, #-8]
  4023f4:	1aa4      	subs	r4, r4, r2
  4023f6:	4413      	add	r3, r2
  4023f8:	68a0      	ldr	r0, [r4, #8]
  4023fa:	68e2      	ldr	r2, [r4, #12]
  4023fc:	60c2      	str	r2, [r0, #12]
  4023fe:	6090      	str	r0, [r2, #8]
  402400:	4a2f      	ldr	r2, [pc, #188]	; (4024c0 <_free_r+0x1c8>)
  402402:	6812      	ldr	r2, [r2, #0]
  402404:	f043 0001 	orr.w	r0, r3, #1
  402408:	4293      	cmp	r3, r2
  40240a:	6060      	str	r0, [r4, #4]
  40240c:	608c      	str	r4, [r1, #8]
  40240e:	d3b6      	bcc.n	40237e <_free_r+0x86>
  402410:	4b2c      	ldr	r3, [pc, #176]	; (4024c4 <_free_r+0x1cc>)
  402412:	4640      	mov	r0, r8
  402414:	6819      	ldr	r1, [r3, #0]
  402416:	f7ff ff21 	bl	40225c <_malloc_trim_r>
  40241a:	e7b0      	b.n	40237e <_free_r+0x86>
  40241c:	1811      	adds	r1, r2, r0
  40241e:	6849      	ldr	r1, [r1, #4]
  402420:	07c9      	lsls	r1, r1, #31
  402422:	d444      	bmi.n	4024ae <_free_r+0x1b6>
  402424:	6891      	ldr	r1, [r2, #8]
  402426:	68d2      	ldr	r2, [r2, #12]
  402428:	60ca      	str	r2, [r1, #12]
  40242a:	4403      	add	r3, r0
  40242c:	f043 0001 	orr.w	r0, r3, #1
  402430:	6091      	str	r1, [r2, #8]
  402432:	6060      	str	r0, [r4, #4]
  402434:	50e3      	str	r3, [r4, r3]
  402436:	e7a2      	b.n	40237e <_free_r+0x86>
  402438:	2a14      	cmp	r2, #20
  40243a:	d817      	bhi.n	40246c <_free_r+0x174>
  40243c:	f102 075c 	add.w	r7, r2, #92	; 0x5c
  402440:	007f      	lsls	r7, r7, #1
  402442:	f102 055b 	add.w	r5, r2, #91	; 0x5b
  402446:	e7a9      	b.n	40239c <_free_r+0xa4>
  402448:	10aa      	asrs	r2, r5, #2
  40244a:	684b      	ldr	r3, [r1, #4]
  40244c:	2501      	movs	r5, #1
  40244e:	fa05 f202 	lsl.w	r2, r5, r2
  402452:	4313      	orrs	r3, r2
  402454:	604b      	str	r3, [r1, #4]
  402456:	4602      	mov	r2, r0
  402458:	e7b1      	b.n	4023be <_free_r+0xc6>
  40245a:	f043 0201 	orr.w	r2, r3, #1
  40245e:	614c      	str	r4, [r1, #20]
  402460:	610c      	str	r4, [r1, #16]
  402462:	60e5      	str	r5, [r4, #12]
  402464:	60a5      	str	r5, [r4, #8]
  402466:	6062      	str	r2, [r4, #4]
  402468:	50e3      	str	r3, [r4, r3]
  40246a:	e788      	b.n	40237e <_free_r+0x86>
  40246c:	2a54      	cmp	r2, #84	; 0x54
  40246e:	d806      	bhi.n	40247e <_free_r+0x186>
  402470:	0b1a      	lsrs	r2, r3, #12
  402472:	f102 076f 	add.w	r7, r2, #111	; 0x6f
  402476:	007f      	lsls	r7, r7, #1
  402478:	f102 056e 	add.w	r5, r2, #110	; 0x6e
  40247c:	e78e      	b.n	40239c <_free_r+0xa4>
  40247e:	f5b2 7faa 	cmp.w	r2, #340	; 0x154
  402482:	d806      	bhi.n	402492 <_free_r+0x19a>
  402484:	0bda      	lsrs	r2, r3, #15
  402486:	f102 0778 	add.w	r7, r2, #120	; 0x78
  40248a:	007f      	lsls	r7, r7, #1
  40248c:	f102 0577 	add.w	r5, r2, #119	; 0x77
  402490:	e784      	b.n	40239c <_free_r+0xa4>
  402492:	f240 5054 	movw	r0, #1364	; 0x554
  402496:	4282      	cmp	r2, r0
  402498:	d806      	bhi.n	4024a8 <_free_r+0x1b0>
  40249a:	0c9a      	lsrs	r2, r3, #18
  40249c:	f102 077d 	add.w	r7, r2, #125	; 0x7d
  4024a0:	007f      	lsls	r7, r7, #1
  4024a2:	f102 057c 	add.w	r5, r2, #124	; 0x7c
  4024a6:	e779      	b.n	40239c <_free_r+0xa4>
  4024a8:	27fe      	movs	r7, #254	; 0xfe
  4024aa:	257e      	movs	r5, #126	; 0x7e
  4024ac:	e776      	b.n	40239c <_free_r+0xa4>
  4024ae:	f043 0201 	orr.w	r2, r3, #1
  4024b2:	6062      	str	r2, [r4, #4]
  4024b4:	50e3      	str	r3, [r4, r3]
  4024b6:	e762      	b.n	40237e <_free_r+0x86>
  4024b8:	20400434 	.word	0x20400434
  4024bc:	2040043c 	.word	0x2040043c
  4024c0:	2040083c 	.word	0x2040083c
  4024c4:	204008e0 	.word	0x204008e0

004024c8 <_fwalk_reent>:
  4024c8:	e92d 43f8 	stmdb	sp!, {r3, r4, r5, r6, r7, r8, r9, lr}
  4024cc:	f510 7738 	adds.w	r7, r0, #736	; 0x2e0
  4024d0:	d01f      	beq.n	402512 <_fwalk_reent+0x4a>
  4024d2:	4688      	mov	r8, r1
  4024d4:	4606      	mov	r6, r0
  4024d6:	f04f 0900 	mov.w	r9, #0
  4024da:	687d      	ldr	r5, [r7, #4]
  4024dc:	68bc      	ldr	r4, [r7, #8]
  4024de:	3d01      	subs	r5, #1
  4024e0:	d411      	bmi.n	402506 <_fwalk_reent+0x3e>
  4024e2:	89a3      	ldrh	r3, [r4, #12]
  4024e4:	2b01      	cmp	r3, #1
  4024e6:	f105 35ff 	add.w	r5, r5, #4294967295
  4024ea:	d908      	bls.n	4024fe <_fwalk_reent+0x36>
  4024ec:	f9b4 300e 	ldrsh.w	r3, [r4, #14]
  4024f0:	3301      	adds	r3, #1
  4024f2:	4621      	mov	r1, r4
  4024f4:	4630      	mov	r0, r6
  4024f6:	d002      	beq.n	4024fe <_fwalk_reent+0x36>
  4024f8:	47c0      	blx	r8
  4024fa:	ea49 0900 	orr.w	r9, r9, r0
  4024fe:	1c6b      	adds	r3, r5, #1
  402500:	f104 0468 	add.w	r4, r4, #104	; 0x68
  402504:	d1ed      	bne.n	4024e2 <_fwalk_reent+0x1a>
  402506:	683f      	ldr	r7, [r7, #0]
  402508:	2f00      	cmp	r7, #0
  40250a:	d1e6      	bne.n	4024da <_fwalk_reent+0x12>
  40250c:	4648      	mov	r0, r9
  40250e:	e8bd 83f8 	ldmia.w	sp!, {r3, r4, r5, r6, r7, r8, r9, pc}
  402512:	46b9      	mov	r9, r7
  402514:	4648      	mov	r0, r9
  402516:	e8bd 83f8 	ldmia.w	sp!, {r3, r4, r5, r6, r7, r8, r9, pc}
  40251a:	bf00      	nop

0040251c <__swhatbuf_r>:
  40251c:	b570      	push	{r4, r5, r6, lr}
  40251e:	460d      	mov	r5, r1
  402520:	f9b1 100e 	ldrsh.w	r1, [r1, #14]
  402524:	2900      	cmp	r1, #0
  402526:	b090      	sub	sp, #64	; 0x40
  402528:	4614      	mov	r4, r2
  40252a:	461e      	mov	r6, r3
  40252c:	db14      	blt.n	402558 <__swhatbuf_r+0x3c>
  40252e:	aa01      	add	r2, sp, #4
  402530:	f000 fbfa 	bl	402d28 <_fstat_r>
  402534:	2800      	cmp	r0, #0
  402536:	db0f      	blt.n	402558 <__swhatbuf_r+0x3c>
  402538:	9a02      	ldr	r2, [sp, #8]
  40253a:	f402 4270 	and.w	r2, r2, #61440	; 0xf000
  40253e:	f5a2 5200 	sub.w	r2, r2, #8192	; 0x2000
  402542:	fab2 f282 	clz	r2, r2
  402546:	0952      	lsrs	r2, r2, #5
  402548:	f44f 6380 	mov.w	r3, #1024	; 0x400
  40254c:	f44f 6000 	mov.w	r0, #2048	; 0x800
  402550:	6032      	str	r2, [r6, #0]
  402552:	6023      	str	r3, [r4, #0]
  402554:	b010      	add	sp, #64	; 0x40
  402556:	bd70      	pop	{r4, r5, r6, pc}
  402558:	89a8      	ldrh	r0, [r5, #12]
  40255a:	f000 0080 	and.w	r0, r0, #128	; 0x80
  40255e:	b282      	uxth	r2, r0
  402560:	2000      	movs	r0, #0
  402562:	6030      	str	r0, [r6, #0]
  402564:	b11a      	cbz	r2, 40256e <__swhatbuf_r+0x52>
  402566:	2340      	movs	r3, #64	; 0x40
  402568:	6023      	str	r3, [r4, #0]
  40256a:	b010      	add	sp, #64	; 0x40
  40256c:	bd70      	pop	{r4, r5, r6, pc}
  40256e:	f44f 6380 	mov.w	r3, #1024	; 0x400
  402572:	4610      	mov	r0, r2
  402574:	6023      	str	r3, [r4, #0]
  402576:	b010      	add	sp, #64	; 0x40
  402578:	bd70      	pop	{r4, r5, r6, pc}
  40257a:	bf00      	nop

0040257c <malloc>:
  40257c:	4b02      	ldr	r3, [pc, #8]	; (402588 <malloc+0xc>)
  40257e:	4601      	mov	r1, r0
  402580:	6818      	ldr	r0, [r3, #0]
  402582:	f000 b803 	b.w	40258c <_malloc_r>
  402586:	bf00      	nop
  402588:	20400430 	.word	0x20400430

0040258c <_malloc_r>:
  40258c:	e92d 4ff0 	stmdb	sp!, {r4, r5, r6, r7, r8, r9, sl, fp, lr}
  402590:	f101 050b 	add.w	r5, r1, #11
  402594:	2d16      	cmp	r5, #22
  402596:	b083      	sub	sp, #12
  402598:	4606      	mov	r6, r0
  40259a:	f240 809f 	bls.w	4026dc <_malloc_r+0x150>
  40259e:	f035 0507 	bics.w	r5, r5, #7
  4025a2:	f100 80bf 	bmi.w	402724 <_malloc_r+0x198>
  4025a6:	42a9      	cmp	r1, r5
  4025a8:	f200 80bc 	bhi.w	402724 <_malloc_r+0x198>
  4025ac:	f000 faa6 	bl	402afc <__malloc_lock>
  4025b0:	f5b5 7ffc 	cmp.w	r5, #504	; 0x1f8
  4025b4:	f0c0 829c 	bcc.w	402af0 <_malloc_r+0x564>
  4025b8:	0a6b      	lsrs	r3, r5, #9
  4025ba:	f000 80ba 	beq.w	402732 <_malloc_r+0x1a6>
  4025be:	2b04      	cmp	r3, #4
  4025c0:	f200 8183 	bhi.w	4028ca <_malloc_r+0x33e>
  4025c4:	09a8      	lsrs	r0, r5, #6
  4025c6:	f100 0e39 	add.w	lr, r0, #57	; 0x39
  4025ca:	ea4f 034e 	mov.w	r3, lr, lsl #1
  4025ce:	3038      	adds	r0, #56	; 0x38
  4025d0:	4fc4      	ldr	r7, [pc, #784]	; (4028e4 <_malloc_r+0x358>)
  4025d2:	eb07 0383 	add.w	r3, r7, r3, lsl #2
  4025d6:	f1a3 0108 	sub.w	r1, r3, #8
  4025da:	685c      	ldr	r4, [r3, #4]
  4025dc:	42a1      	cmp	r1, r4
  4025de:	d107      	bne.n	4025f0 <_malloc_r+0x64>
  4025e0:	e0ac      	b.n	40273c <_malloc_r+0x1b0>
  4025e2:	2a00      	cmp	r2, #0
  4025e4:	f280 80ac 	bge.w	402740 <_malloc_r+0x1b4>
  4025e8:	68e4      	ldr	r4, [r4, #12]
  4025ea:	42a1      	cmp	r1, r4
  4025ec:	f000 80a6 	beq.w	40273c <_malloc_r+0x1b0>
  4025f0:	6863      	ldr	r3, [r4, #4]
  4025f2:	f023 0303 	bic.w	r3, r3, #3
  4025f6:	1b5a      	subs	r2, r3, r5
  4025f8:	2a0f      	cmp	r2, #15
  4025fa:	ddf2      	ble.n	4025e2 <_malloc_r+0x56>
  4025fc:	49b9      	ldr	r1, [pc, #740]	; (4028e4 <_malloc_r+0x358>)
  4025fe:	693c      	ldr	r4, [r7, #16]
  402600:	f101 0e08 	add.w	lr, r1, #8
  402604:	4574      	cmp	r4, lr
  402606:	f000 81b3 	beq.w	402970 <_malloc_r+0x3e4>
  40260a:	6863      	ldr	r3, [r4, #4]
  40260c:	f023 0303 	bic.w	r3, r3, #3
  402610:	1b5a      	subs	r2, r3, r5
  402612:	2a0f      	cmp	r2, #15
  402614:	f300 8199 	bgt.w	40294a <_malloc_r+0x3be>
  402618:	2a00      	cmp	r2, #0
  40261a:	f8c1 e014 	str.w	lr, [r1, #20]
  40261e:	f8c1 e010 	str.w	lr, [r1, #16]
  402622:	f280 809e 	bge.w	402762 <_malloc_r+0x1d6>
  402626:	f5b3 7f00 	cmp.w	r3, #512	; 0x200
  40262a:	f080 8167 	bcs.w	4028fc <_malloc_r+0x370>
  40262e:	08db      	lsrs	r3, r3, #3
  402630:	f103 0c01 	add.w	ip, r3, #1
  402634:	2201      	movs	r2, #1
  402636:	109b      	asrs	r3, r3, #2
  402638:	fa02 f303 	lsl.w	r3, r2, r3
  40263c:	684a      	ldr	r2, [r1, #4]
  40263e:	f851 803c 	ldr.w	r8, [r1, ip, lsl #3]
  402642:	f8c4 8008 	str.w	r8, [r4, #8]
  402646:	eb01 09cc 	add.w	r9, r1, ip, lsl #3
  40264a:	431a      	orrs	r2, r3
  40264c:	f1a9 0308 	sub.w	r3, r9, #8
  402650:	60e3      	str	r3, [r4, #12]
  402652:	604a      	str	r2, [r1, #4]
  402654:	f841 403c 	str.w	r4, [r1, ip, lsl #3]
  402658:	f8c8 400c 	str.w	r4, [r8, #12]
  40265c:	1083      	asrs	r3, r0, #2
  40265e:	2401      	movs	r4, #1
  402660:	409c      	lsls	r4, r3
  402662:	4294      	cmp	r4, r2
  402664:	f200 808a 	bhi.w	40277c <_malloc_r+0x1f0>
  402668:	4214      	tst	r4, r2
  40266a:	d106      	bne.n	40267a <_malloc_r+0xee>
  40266c:	f020 0003 	bic.w	r0, r0, #3
  402670:	0064      	lsls	r4, r4, #1
  402672:	4214      	tst	r4, r2
  402674:	f100 0004 	add.w	r0, r0, #4
  402678:	d0fa      	beq.n	402670 <_malloc_r+0xe4>
  40267a:	eb07 09c0 	add.w	r9, r7, r0, lsl #3
  40267e:	46cc      	mov	ip, r9
  402680:	4680      	mov	r8, r0
  402682:	f8dc 100c 	ldr.w	r1, [ip, #12]
  402686:	458c      	cmp	ip, r1
  402688:	d107      	bne.n	40269a <_malloc_r+0x10e>
  40268a:	e173      	b.n	402974 <_malloc_r+0x3e8>
  40268c:	2a00      	cmp	r2, #0
  40268e:	f280 8181 	bge.w	402994 <_malloc_r+0x408>
  402692:	68c9      	ldr	r1, [r1, #12]
  402694:	458c      	cmp	ip, r1
  402696:	f000 816d 	beq.w	402974 <_malloc_r+0x3e8>
  40269a:	684b      	ldr	r3, [r1, #4]
  40269c:	f023 0303 	bic.w	r3, r3, #3
  4026a0:	1b5a      	subs	r2, r3, r5
  4026a2:	2a0f      	cmp	r2, #15
  4026a4:	ddf2      	ble.n	40268c <_malloc_r+0x100>
  4026a6:	460c      	mov	r4, r1
  4026a8:	f8d1 c00c 	ldr.w	ip, [r1, #12]
  4026ac:	f854 8f08 	ldr.w	r8, [r4, #8]!
  4026b0:	194b      	adds	r3, r1, r5
  4026b2:	f045 0501 	orr.w	r5, r5, #1
  4026b6:	604d      	str	r5, [r1, #4]
  4026b8:	f042 0101 	orr.w	r1, r2, #1
  4026bc:	f8c8 c00c 	str.w	ip, [r8, #12]
  4026c0:	4630      	mov	r0, r6
  4026c2:	f8cc 8008 	str.w	r8, [ip, #8]
  4026c6:	617b      	str	r3, [r7, #20]
  4026c8:	613b      	str	r3, [r7, #16]
  4026ca:	f8c3 e00c 	str.w	lr, [r3, #12]
  4026ce:	f8c3 e008 	str.w	lr, [r3, #8]
  4026d2:	6059      	str	r1, [r3, #4]
  4026d4:	509a      	str	r2, [r3, r2]
  4026d6:	f000 fa13 	bl	402b00 <__malloc_unlock>
  4026da:	e01f      	b.n	40271c <_malloc_r+0x190>
  4026dc:	2910      	cmp	r1, #16
  4026de:	d821      	bhi.n	402724 <_malloc_r+0x198>
  4026e0:	f000 fa0c 	bl	402afc <__malloc_lock>
  4026e4:	2510      	movs	r5, #16
  4026e6:	2306      	movs	r3, #6
  4026e8:	2002      	movs	r0, #2
  4026ea:	4f7e      	ldr	r7, [pc, #504]	; (4028e4 <_malloc_r+0x358>)
  4026ec:	eb07 0383 	add.w	r3, r7, r3, lsl #2
  4026f0:	f1a3 0208 	sub.w	r2, r3, #8
  4026f4:	685c      	ldr	r4, [r3, #4]
  4026f6:	4294      	cmp	r4, r2
  4026f8:	f000 8145 	beq.w	402986 <_malloc_r+0x3fa>
  4026fc:	6863      	ldr	r3, [r4, #4]
  4026fe:	68e1      	ldr	r1, [r4, #12]
  402700:	68a5      	ldr	r5, [r4, #8]
  402702:	f023 0303 	bic.w	r3, r3, #3
  402706:	4423      	add	r3, r4
  402708:	4630      	mov	r0, r6
  40270a:	685a      	ldr	r2, [r3, #4]
  40270c:	60e9      	str	r1, [r5, #12]
  40270e:	f042 0201 	orr.w	r2, r2, #1
  402712:	608d      	str	r5, [r1, #8]
  402714:	605a      	str	r2, [r3, #4]
  402716:	f000 f9f3 	bl	402b00 <__malloc_unlock>
  40271a:	3408      	adds	r4, #8
  40271c:	4620      	mov	r0, r4
  40271e:	b003      	add	sp, #12
  402720:	e8bd 8ff0 	ldmia.w	sp!, {r4, r5, r6, r7, r8, r9, sl, fp, pc}
  402724:	2400      	movs	r4, #0
  402726:	230c      	movs	r3, #12
  402728:	4620      	mov	r0, r4
  40272a:	6033      	str	r3, [r6, #0]
  40272c:	b003      	add	sp, #12
  40272e:	e8bd 8ff0 	ldmia.w	sp!, {r4, r5, r6, r7, r8, r9, sl, fp, pc}
  402732:	2380      	movs	r3, #128	; 0x80
  402734:	f04f 0e40 	mov.w	lr, #64	; 0x40
  402738:	203f      	movs	r0, #63	; 0x3f
  40273a:	e749      	b.n	4025d0 <_malloc_r+0x44>
  40273c:	4670      	mov	r0, lr
  40273e:	e75d      	b.n	4025fc <_malloc_r+0x70>
  402740:	4423      	add	r3, r4
  402742:	68e1      	ldr	r1, [r4, #12]
  402744:	685a      	ldr	r2, [r3, #4]
  402746:	68a5      	ldr	r5, [r4, #8]
  402748:	f042 0201 	orr.w	r2, r2, #1
  40274c:	60e9      	str	r1, [r5, #12]
  40274e:	4630      	mov	r0, r6
  402750:	608d      	str	r5, [r1, #8]
  402752:	605a      	str	r2, [r3, #4]
  402754:	f000 f9d4 	bl	402b00 <__malloc_unlock>
  402758:	3408      	adds	r4, #8
  40275a:	4620      	mov	r0, r4
  40275c:	b003      	add	sp, #12
  40275e:	e8bd 8ff0 	ldmia.w	sp!, {r4, r5, r6, r7, r8, r9, sl, fp, pc}
  402762:	4423      	add	r3, r4
  402764:	4630      	mov	r0, r6
  402766:	685a      	ldr	r2, [r3, #4]
  402768:	f042 0201 	orr.w	r2, r2, #1
  40276c:	605a      	str	r2, [r3, #4]
  40276e:	f000 f9c7 	bl	402b00 <__malloc_unlock>
  402772:	3408      	adds	r4, #8
  402774:	4620      	mov	r0, r4
  402776:	b003      	add	sp, #12
  402778:	e8bd 8ff0 	ldmia.w	sp!, {r4, r5, r6, r7, r8, r9, sl, fp, pc}
  40277c:	68bc      	ldr	r4, [r7, #8]
  40277e:	6863      	ldr	r3, [r4, #4]
  402780:	f023 0803 	bic.w	r8, r3, #3
  402784:	45a8      	cmp	r8, r5
  402786:	d304      	bcc.n	402792 <_malloc_r+0x206>
  402788:	ebc5 0308 	rsb	r3, r5, r8
  40278c:	2b0f      	cmp	r3, #15
  40278e:	f300 808c 	bgt.w	4028aa <_malloc_r+0x31e>
  402792:	4b55      	ldr	r3, [pc, #340]	; (4028e8 <_malloc_r+0x35c>)
  402794:	f8df 9160 	ldr.w	r9, [pc, #352]	; 4028f8 <_malloc_r+0x36c>
  402798:	681a      	ldr	r2, [r3, #0]
  40279a:	f8d9 3000 	ldr.w	r3, [r9]
  40279e:	3301      	adds	r3, #1
  4027a0:	442a      	add	r2, r5
  4027a2:	eb04 0a08 	add.w	sl, r4, r8
  4027a6:	f000 8160 	beq.w	402a6a <_malloc_r+0x4de>
  4027aa:	f502 5280 	add.w	r2, r2, #4096	; 0x1000
  4027ae:	320f      	adds	r2, #15
  4027b0:	f422 627f 	bic.w	r2, r2, #4080	; 0xff0
  4027b4:	f022 020f 	bic.w	r2, r2, #15
  4027b8:	4611      	mov	r1, r2
  4027ba:	4630      	mov	r0, r6
  4027bc:	9201      	str	r2, [sp, #4]
  4027be:	f000 f9a1 	bl	402b04 <_sbrk_r>
  4027c2:	f1b0 3fff 	cmp.w	r0, #4294967295
  4027c6:	4683      	mov	fp, r0
  4027c8:	9a01      	ldr	r2, [sp, #4]
  4027ca:	f000 8158 	beq.w	402a7e <_malloc_r+0x4f2>
  4027ce:	4582      	cmp	sl, r0
  4027d0:	f200 80fc 	bhi.w	4029cc <_malloc_r+0x440>
  4027d4:	4b45      	ldr	r3, [pc, #276]	; (4028ec <_malloc_r+0x360>)
  4027d6:	6819      	ldr	r1, [r3, #0]
  4027d8:	45da      	cmp	sl, fp
  4027da:	4411      	add	r1, r2
  4027dc:	6019      	str	r1, [r3, #0]
  4027de:	f000 8153 	beq.w	402a88 <_malloc_r+0x4fc>
  4027e2:	f8d9 0000 	ldr.w	r0, [r9]
  4027e6:	f8df e110 	ldr.w	lr, [pc, #272]	; 4028f8 <_malloc_r+0x36c>
  4027ea:	3001      	adds	r0, #1
  4027ec:	bf1b      	ittet	ne
  4027ee:	ebca 0a0b 	rsbne	sl, sl, fp
  4027f2:	4451      	addne	r1, sl
  4027f4:	f8ce b000 	streq.w	fp, [lr]
  4027f8:	6019      	strne	r1, [r3, #0]
  4027fa:	f01b 0107 	ands.w	r1, fp, #7
  4027fe:	f000 8117 	beq.w	402a30 <_malloc_r+0x4a4>
  402802:	f1c1 0008 	rsb	r0, r1, #8
  402806:	f5c1 5180 	rsb	r1, r1, #4096	; 0x1000
  40280a:	4483      	add	fp, r0
  40280c:	3108      	adds	r1, #8
  40280e:	445a      	add	r2, fp
  402810:	f3c2 020b 	ubfx	r2, r2, #0, #12
  402814:	ebc2 0901 	rsb	r9, r2, r1
  402818:	4649      	mov	r1, r9
  40281a:	4630      	mov	r0, r6
  40281c:	9301      	str	r3, [sp, #4]
  40281e:	f000 f971 	bl	402b04 <_sbrk_r>
  402822:	1c43      	adds	r3, r0, #1
  402824:	9b01      	ldr	r3, [sp, #4]
  402826:	f000 813f 	beq.w	402aa8 <_malloc_r+0x51c>
  40282a:	ebcb 0200 	rsb	r2, fp, r0
  40282e:	444a      	add	r2, r9
  402830:	f042 0201 	orr.w	r2, r2, #1
  402834:	6819      	ldr	r1, [r3, #0]
  402836:	f8c7 b008 	str.w	fp, [r7, #8]
  40283a:	4449      	add	r1, r9
  40283c:	42bc      	cmp	r4, r7
  40283e:	f8cb 2004 	str.w	r2, [fp, #4]
  402842:	6019      	str	r1, [r3, #0]
  402844:	f8df 90a4 	ldr.w	r9, [pc, #164]	; 4028ec <_malloc_r+0x360>
  402848:	d016      	beq.n	402878 <_malloc_r+0x2ec>
  40284a:	f1b8 0f0f 	cmp.w	r8, #15
  40284e:	f240 80fd 	bls.w	402a4c <_malloc_r+0x4c0>
  402852:	6862      	ldr	r2, [r4, #4]
  402854:	f1a8 030c 	sub.w	r3, r8, #12
  402858:	f023 0307 	bic.w	r3, r3, #7
  40285c:	18e0      	adds	r0, r4, r3
  40285e:	f002 0201 	and.w	r2, r2, #1
  402862:	f04f 0e05 	mov.w	lr, #5
  402866:	431a      	orrs	r2, r3
  402868:	2b0f      	cmp	r3, #15
  40286a:	6062      	str	r2, [r4, #4]
  40286c:	f8c0 e004 	str.w	lr, [r0, #4]
  402870:	f8c0 e008 	str.w	lr, [r0, #8]
  402874:	f200 811c 	bhi.w	402ab0 <_malloc_r+0x524>
  402878:	4b1d      	ldr	r3, [pc, #116]	; (4028f0 <_malloc_r+0x364>)
  40287a:	68bc      	ldr	r4, [r7, #8]
  40287c:	681a      	ldr	r2, [r3, #0]
  40287e:	4291      	cmp	r1, r2
  402880:	bf88      	it	hi
  402882:	6019      	strhi	r1, [r3, #0]
  402884:	4b1b      	ldr	r3, [pc, #108]	; (4028f4 <_malloc_r+0x368>)
  402886:	681a      	ldr	r2, [r3, #0]
  402888:	4291      	cmp	r1, r2
  40288a:	6862      	ldr	r2, [r4, #4]
  40288c:	bf88      	it	hi
  40288e:	6019      	strhi	r1, [r3, #0]
  402890:	f022 0203 	bic.w	r2, r2, #3
  402894:	4295      	cmp	r5, r2
  402896:	eba2 0305 	sub.w	r3, r2, r5
  40289a:	d801      	bhi.n	4028a0 <_malloc_r+0x314>
  40289c:	2b0f      	cmp	r3, #15
  40289e:	dc04      	bgt.n	4028aa <_malloc_r+0x31e>
  4028a0:	4630      	mov	r0, r6
  4028a2:	f000 f92d 	bl	402b00 <__malloc_unlock>
  4028a6:	2400      	movs	r4, #0
  4028a8:	e738      	b.n	40271c <_malloc_r+0x190>
  4028aa:	1962      	adds	r2, r4, r5
  4028ac:	f043 0301 	orr.w	r3, r3, #1
  4028b0:	f045 0501 	orr.w	r5, r5, #1
  4028b4:	6065      	str	r5, [r4, #4]
  4028b6:	4630      	mov	r0, r6
  4028b8:	60ba      	str	r2, [r7, #8]
  4028ba:	6053      	str	r3, [r2, #4]
  4028bc:	f000 f920 	bl	402b00 <__malloc_unlock>
  4028c0:	3408      	adds	r4, #8
  4028c2:	4620      	mov	r0, r4
  4028c4:	b003      	add	sp, #12
  4028c6:	e8bd 8ff0 	ldmia.w	sp!, {r4, r5, r6, r7, r8, r9, sl, fp, pc}
  4028ca:	2b14      	cmp	r3, #20
  4028cc:	d971      	bls.n	4029b2 <_malloc_r+0x426>
  4028ce:	2b54      	cmp	r3, #84	; 0x54
  4028d0:	f200 80a4 	bhi.w	402a1c <_malloc_r+0x490>
  4028d4:	0b28      	lsrs	r0, r5, #12
  4028d6:	f100 0e6f 	add.w	lr, r0, #111	; 0x6f
  4028da:	ea4f 034e 	mov.w	r3, lr, lsl #1
  4028de:	306e      	adds	r0, #110	; 0x6e
  4028e0:	e676      	b.n	4025d0 <_malloc_r+0x44>
  4028e2:	bf00      	nop
  4028e4:	20400434 	.word	0x20400434
  4028e8:	204008e0 	.word	0x204008e0
  4028ec:	204008e4 	.word	0x204008e4
  4028f0:	204008dc 	.word	0x204008dc
  4028f4:	204008d8 	.word	0x204008d8
  4028f8:	20400840 	.word	0x20400840
  4028fc:	0a5a      	lsrs	r2, r3, #9
  4028fe:	2a04      	cmp	r2, #4
  402900:	d95e      	bls.n	4029c0 <_malloc_r+0x434>
  402902:	2a14      	cmp	r2, #20
  402904:	f200 80b3 	bhi.w	402a6e <_malloc_r+0x4e2>
  402908:	f102 015c 	add.w	r1, r2, #92	; 0x5c
  40290c:	0049      	lsls	r1, r1, #1
  40290e:	325b      	adds	r2, #91	; 0x5b
  402910:	eb07 0c81 	add.w	ip, r7, r1, lsl #2
  402914:	f857 1021 	ldr.w	r1, [r7, r1, lsl #2]
  402918:	f8df 81dc 	ldr.w	r8, [pc, #476]	; 402af8 <_malloc_r+0x56c>
  40291c:	f1ac 0c08 	sub.w	ip, ip, #8
  402920:	458c      	cmp	ip, r1
  402922:	f000 8088 	beq.w	402a36 <_malloc_r+0x4aa>
  402926:	684a      	ldr	r2, [r1, #4]
  402928:	f022 0203 	bic.w	r2, r2, #3
  40292c:	4293      	cmp	r3, r2
  40292e:	d202      	bcs.n	402936 <_malloc_r+0x3aa>
  402930:	6889      	ldr	r1, [r1, #8]
  402932:	458c      	cmp	ip, r1
  402934:	d1f7      	bne.n	402926 <_malloc_r+0x39a>
  402936:	f8d1 c00c 	ldr.w	ip, [r1, #12]
  40293a:	687a      	ldr	r2, [r7, #4]
  40293c:	f8c4 c00c 	str.w	ip, [r4, #12]
  402940:	60a1      	str	r1, [r4, #8]
  402942:	f8cc 4008 	str.w	r4, [ip, #8]
  402946:	60cc      	str	r4, [r1, #12]
  402948:	e688      	b.n	40265c <_malloc_r+0xd0>
  40294a:	1963      	adds	r3, r4, r5
  40294c:	f042 0701 	orr.w	r7, r2, #1
  402950:	f045 0501 	orr.w	r5, r5, #1
  402954:	6065      	str	r5, [r4, #4]
  402956:	4630      	mov	r0, r6
  402958:	614b      	str	r3, [r1, #20]
  40295a:	610b      	str	r3, [r1, #16]
  40295c:	f8c3 e00c 	str.w	lr, [r3, #12]
  402960:	f8c3 e008 	str.w	lr, [r3, #8]
  402964:	605f      	str	r7, [r3, #4]
  402966:	509a      	str	r2, [r3, r2]
  402968:	3408      	adds	r4, #8
  40296a:	f000 f8c9 	bl	402b00 <__malloc_unlock>
  40296e:	e6d5      	b.n	40271c <_malloc_r+0x190>
  402970:	684a      	ldr	r2, [r1, #4]
  402972:	e673      	b.n	40265c <_malloc_r+0xd0>
  402974:	f108 0801 	add.w	r8, r8, #1
  402978:	f018 0f03 	tst.w	r8, #3
  40297c:	f10c 0c08 	add.w	ip, ip, #8
  402980:	f47f ae7f 	bne.w	402682 <_malloc_r+0xf6>
  402984:	e030      	b.n	4029e8 <_malloc_r+0x45c>
  402986:	68dc      	ldr	r4, [r3, #12]
  402988:	42a3      	cmp	r3, r4
  40298a:	bf08      	it	eq
  40298c:	3002      	addeq	r0, #2
  40298e:	f43f ae35 	beq.w	4025fc <_malloc_r+0x70>
  402992:	e6b3      	b.n	4026fc <_malloc_r+0x170>
  402994:	440b      	add	r3, r1
  402996:	460c      	mov	r4, r1
  402998:	685a      	ldr	r2, [r3, #4]
  40299a:	68c9      	ldr	r1, [r1, #12]
  40299c:	f854 5f08 	ldr.w	r5, [r4, #8]!
  4029a0:	f042 0201 	orr.w	r2, r2, #1
  4029a4:	605a      	str	r2, [r3, #4]
  4029a6:	4630      	mov	r0, r6
  4029a8:	60e9      	str	r1, [r5, #12]
  4029aa:	608d      	str	r5, [r1, #8]
  4029ac:	f000 f8a8 	bl	402b00 <__malloc_unlock>
  4029b0:	e6b4      	b.n	40271c <_malloc_r+0x190>
  4029b2:	f103 0e5c 	add.w	lr, r3, #92	; 0x5c
  4029b6:	f103 005b 	add.w	r0, r3, #91	; 0x5b
  4029ba:	ea4f 034e 	mov.w	r3, lr, lsl #1
  4029be:	e607      	b.n	4025d0 <_malloc_r+0x44>
  4029c0:	099a      	lsrs	r2, r3, #6
  4029c2:	f102 0139 	add.w	r1, r2, #57	; 0x39
  4029c6:	0049      	lsls	r1, r1, #1
  4029c8:	3238      	adds	r2, #56	; 0x38
  4029ca:	e7a1      	b.n	402910 <_malloc_r+0x384>
  4029cc:	42bc      	cmp	r4, r7
  4029ce:	4b4a      	ldr	r3, [pc, #296]	; (402af8 <_malloc_r+0x56c>)
  4029d0:	f43f af00 	beq.w	4027d4 <_malloc_r+0x248>
  4029d4:	689c      	ldr	r4, [r3, #8]
  4029d6:	6862      	ldr	r2, [r4, #4]
  4029d8:	f022 0203 	bic.w	r2, r2, #3
  4029dc:	e75a      	b.n	402894 <_malloc_r+0x308>
  4029de:	f859 3908 	ldr.w	r3, [r9], #-8
  4029e2:	4599      	cmp	r9, r3
  4029e4:	f040 8082 	bne.w	402aec <_malloc_r+0x560>
  4029e8:	f010 0f03 	tst.w	r0, #3
  4029ec:	f100 30ff 	add.w	r0, r0, #4294967295
  4029f0:	d1f5      	bne.n	4029de <_malloc_r+0x452>
  4029f2:	687b      	ldr	r3, [r7, #4]
  4029f4:	ea23 0304 	bic.w	r3, r3, r4
  4029f8:	607b      	str	r3, [r7, #4]
  4029fa:	0064      	lsls	r4, r4, #1
  4029fc:	429c      	cmp	r4, r3
  4029fe:	f63f aebd 	bhi.w	40277c <_malloc_r+0x1f0>
  402a02:	2c00      	cmp	r4, #0
  402a04:	f43f aeba 	beq.w	40277c <_malloc_r+0x1f0>
  402a08:	421c      	tst	r4, r3
  402a0a:	4640      	mov	r0, r8
  402a0c:	f47f ae35 	bne.w	40267a <_malloc_r+0xee>
  402a10:	0064      	lsls	r4, r4, #1
  402a12:	421c      	tst	r4, r3
  402a14:	f100 0004 	add.w	r0, r0, #4
  402a18:	d0fa      	beq.n	402a10 <_malloc_r+0x484>
  402a1a:	e62e      	b.n	40267a <_malloc_r+0xee>
  402a1c:	f5b3 7faa 	cmp.w	r3, #340	; 0x154
  402a20:	d818      	bhi.n	402a54 <_malloc_r+0x4c8>
  402a22:	0be8      	lsrs	r0, r5, #15
  402a24:	f100 0e78 	add.w	lr, r0, #120	; 0x78
  402a28:	ea4f 034e 	mov.w	r3, lr, lsl #1
  402a2c:	3077      	adds	r0, #119	; 0x77
  402a2e:	e5cf      	b.n	4025d0 <_malloc_r+0x44>
  402a30:	f44f 5180 	mov.w	r1, #4096	; 0x1000
  402a34:	e6eb      	b.n	40280e <_malloc_r+0x282>
  402a36:	2101      	movs	r1, #1
  402a38:	f8d8 3004 	ldr.w	r3, [r8, #4]
  402a3c:	1092      	asrs	r2, r2, #2
  402a3e:	fa01 f202 	lsl.w	r2, r1, r2
  402a42:	431a      	orrs	r2, r3
  402a44:	f8c8 2004 	str.w	r2, [r8, #4]
  402a48:	4661      	mov	r1, ip
  402a4a:	e777      	b.n	40293c <_malloc_r+0x3b0>
  402a4c:	2301      	movs	r3, #1
  402a4e:	f8cb 3004 	str.w	r3, [fp, #4]
  402a52:	e725      	b.n	4028a0 <_malloc_r+0x314>
  402a54:	f240 5254 	movw	r2, #1364	; 0x554
  402a58:	4293      	cmp	r3, r2
  402a5a:	d820      	bhi.n	402a9e <_malloc_r+0x512>
  402a5c:	0ca8      	lsrs	r0, r5, #18
  402a5e:	f100 0e7d 	add.w	lr, r0, #125	; 0x7d
  402a62:	ea4f 034e 	mov.w	r3, lr, lsl #1
  402a66:	307c      	adds	r0, #124	; 0x7c
  402a68:	e5b2      	b.n	4025d0 <_malloc_r+0x44>
  402a6a:	3210      	adds	r2, #16
  402a6c:	e6a4      	b.n	4027b8 <_malloc_r+0x22c>
  402a6e:	2a54      	cmp	r2, #84	; 0x54
  402a70:	d826      	bhi.n	402ac0 <_malloc_r+0x534>
  402a72:	0b1a      	lsrs	r2, r3, #12
  402a74:	f102 016f 	add.w	r1, r2, #111	; 0x6f
  402a78:	0049      	lsls	r1, r1, #1
  402a7a:	326e      	adds	r2, #110	; 0x6e
  402a7c:	e748      	b.n	402910 <_malloc_r+0x384>
  402a7e:	68bc      	ldr	r4, [r7, #8]
  402a80:	6862      	ldr	r2, [r4, #4]
  402a82:	f022 0203 	bic.w	r2, r2, #3
  402a86:	e705      	b.n	402894 <_malloc_r+0x308>
  402a88:	f3ca 000b 	ubfx	r0, sl, #0, #12
  402a8c:	2800      	cmp	r0, #0
  402a8e:	f47f aea8 	bne.w	4027e2 <_malloc_r+0x256>
  402a92:	4442      	add	r2, r8
  402a94:	68bb      	ldr	r3, [r7, #8]
  402a96:	f042 0201 	orr.w	r2, r2, #1
  402a9a:	605a      	str	r2, [r3, #4]
  402a9c:	e6ec      	b.n	402878 <_malloc_r+0x2ec>
  402a9e:	23fe      	movs	r3, #254	; 0xfe
  402aa0:	f04f 0e7f 	mov.w	lr, #127	; 0x7f
  402aa4:	207e      	movs	r0, #126	; 0x7e
  402aa6:	e593      	b.n	4025d0 <_malloc_r+0x44>
  402aa8:	2201      	movs	r2, #1
  402aaa:	f04f 0900 	mov.w	r9, #0
  402aae:	e6c1      	b.n	402834 <_malloc_r+0x2a8>
  402ab0:	f104 0108 	add.w	r1, r4, #8
  402ab4:	4630      	mov	r0, r6
  402ab6:	f7ff fc1f 	bl	4022f8 <_free_r>
  402aba:	f8d9 1000 	ldr.w	r1, [r9]
  402abe:	e6db      	b.n	402878 <_malloc_r+0x2ec>
  402ac0:	f5b2 7faa 	cmp.w	r2, #340	; 0x154
  402ac4:	d805      	bhi.n	402ad2 <_malloc_r+0x546>
  402ac6:	0bda      	lsrs	r2, r3, #15
  402ac8:	f102 0178 	add.w	r1, r2, #120	; 0x78
  402acc:	0049      	lsls	r1, r1, #1
  402ace:	3277      	adds	r2, #119	; 0x77
  402ad0:	e71e      	b.n	402910 <_malloc_r+0x384>
  402ad2:	f240 5154 	movw	r1, #1364	; 0x554
  402ad6:	428a      	cmp	r2, r1
  402ad8:	d805      	bhi.n	402ae6 <_malloc_r+0x55a>
  402ada:	0c9a      	lsrs	r2, r3, #18
  402adc:	f102 017d 	add.w	r1, r2, #125	; 0x7d
  402ae0:	0049      	lsls	r1, r1, #1
  402ae2:	327c      	adds	r2, #124	; 0x7c
  402ae4:	e714      	b.n	402910 <_malloc_r+0x384>
  402ae6:	21fe      	movs	r1, #254	; 0xfe
  402ae8:	227e      	movs	r2, #126	; 0x7e
  402aea:	e711      	b.n	402910 <_malloc_r+0x384>
  402aec:	687b      	ldr	r3, [r7, #4]
  402aee:	e784      	b.n	4029fa <_malloc_r+0x46e>
  402af0:	08e8      	lsrs	r0, r5, #3
  402af2:	1c43      	adds	r3, r0, #1
  402af4:	005b      	lsls	r3, r3, #1
  402af6:	e5f8      	b.n	4026ea <_malloc_r+0x15e>
  402af8:	20400434 	.word	0x20400434

00402afc <__malloc_lock>:
  402afc:	4770      	bx	lr
  402afe:	bf00      	nop

00402b00 <__malloc_unlock>:
  402b00:	4770      	bx	lr
  402b02:	bf00      	nop

00402b04 <_sbrk_r>:
  402b04:	b538      	push	{r3, r4, r5, lr}
  402b06:	4c07      	ldr	r4, [pc, #28]	; (402b24 <_sbrk_r+0x20>)
  402b08:	2300      	movs	r3, #0
  402b0a:	4605      	mov	r5, r0
  402b0c:	4608      	mov	r0, r1
  402b0e:	6023      	str	r3, [r4, #0]
  402b10:	f7fe fd0c 	bl	40152c <_sbrk>
  402b14:	1c43      	adds	r3, r0, #1
  402b16:	d000      	beq.n	402b1a <_sbrk_r+0x16>
  402b18:	bd38      	pop	{r3, r4, r5, pc}
  402b1a:	6823      	ldr	r3, [r4, #0]
  402b1c:	2b00      	cmp	r3, #0
  402b1e:	d0fb      	beq.n	402b18 <_sbrk_r+0x14>
  402b20:	602b      	str	r3, [r5, #0]
  402b22:	bd38      	pop	{r3, r4, r5, pc}
  402b24:	20400918 	.word	0x20400918

00402b28 <__sread>:
  402b28:	b510      	push	{r4, lr}
  402b2a:	460c      	mov	r4, r1
  402b2c:	f9b1 100e 	ldrsh.w	r1, [r1, #14]
  402b30:	f000 f924 	bl	402d7c <_read_r>
  402b34:	2800      	cmp	r0, #0
  402b36:	db03      	blt.n	402b40 <__sread+0x18>
  402b38:	6d23      	ldr	r3, [r4, #80]	; 0x50
  402b3a:	4403      	add	r3, r0
  402b3c:	6523      	str	r3, [r4, #80]	; 0x50
  402b3e:	bd10      	pop	{r4, pc}
  402b40:	89a3      	ldrh	r3, [r4, #12]
  402b42:	f423 5380 	bic.w	r3, r3, #4096	; 0x1000
  402b46:	81a3      	strh	r3, [r4, #12]
  402b48:	bd10      	pop	{r4, pc}
  402b4a:	bf00      	nop

00402b4c <__swrite>:
  402b4c:	e92d 41f0 	stmdb	sp!, {r4, r5, r6, r7, r8, lr}
  402b50:	4616      	mov	r6, r2
  402b52:	f9b1 200c 	ldrsh.w	r2, [r1, #12]
  402b56:	461f      	mov	r7, r3
  402b58:	05d3      	lsls	r3, r2, #23
  402b5a:	460c      	mov	r4, r1
  402b5c:	4605      	mov	r5, r0
  402b5e:	d507      	bpl.n	402b70 <__swrite+0x24>
  402b60:	2200      	movs	r2, #0
  402b62:	2302      	movs	r3, #2
  402b64:	f9b1 100e 	ldrsh.w	r1, [r1, #14]
  402b68:	f000 f8f2 	bl	402d50 <_lseek_r>
  402b6c:	f9b4 200c 	ldrsh.w	r2, [r4, #12]
  402b70:	f9b4 100e 	ldrsh.w	r1, [r4, #14]
  402b74:	f422 5280 	bic.w	r2, r2, #4096	; 0x1000
  402b78:	81a2      	strh	r2, [r4, #12]
  402b7a:	463b      	mov	r3, r7
  402b7c:	4632      	mov	r2, r6
  402b7e:	4628      	mov	r0, r5
  402b80:	e8bd 41f0 	ldmia.w	sp!, {r4, r5, r6, r7, r8, lr}
  402b84:	f000 b814 	b.w	402bb0 <_write_r>

00402b88 <__sseek>:
  402b88:	b510      	push	{r4, lr}
  402b8a:	460c      	mov	r4, r1
  402b8c:	f9b1 100e 	ldrsh.w	r1, [r1, #14]
  402b90:	f000 f8de 	bl	402d50 <_lseek_r>
  402b94:	89a3      	ldrh	r3, [r4, #12]
  402b96:	1c42      	adds	r2, r0, #1
  402b98:	bf0e      	itee	eq
  402b9a:	f423 5380 	biceq.w	r3, r3, #4096	; 0x1000
  402b9e:	f443 5380 	orrne.w	r3, r3, #4096	; 0x1000
  402ba2:	6520      	strne	r0, [r4, #80]	; 0x50
  402ba4:	81a3      	strh	r3, [r4, #12]
  402ba6:	bd10      	pop	{r4, pc}

00402ba8 <__sclose>:
  402ba8:	f9b1 100e 	ldrsh.w	r1, [r1, #14]
  402bac:	f000 b868 	b.w	402c80 <_close_r>

00402bb0 <_write_r>:
  402bb0:	b570      	push	{r4, r5, r6, lr}
  402bb2:	460d      	mov	r5, r1
  402bb4:	4c08      	ldr	r4, [pc, #32]	; (402bd8 <_write_r+0x28>)
  402bb6:	4611      	mov	r1, r2
  402bb8:	4606      	mov	r6, r0
  402bba:	461a      	mov	r2, r3
  402bbc:	4628      	mov	r0, r5
  402bbe:	2300      	movs	r3, #0
  402bc0:	6023      	str	r3, [r4, #0]
  402bc2:	f7fd fcd3 	bl	40056c <_write>
  402bc6:	1c43      	adds	r3, r0, #1
  402bc8:	d000      	beq.n	402bcc <_write_r+0x1c>
  402bca:	bd70      	pop	{r4, r5, r6, pc}
  402bcc:	6823      	ldr	r3, [r4, #0]
  402bce:	2b00      	cmp	r3, #0
  402bd0:	d0fb      	beq.n	402bca <_write_r+0x1a>
  402bd2:	6033      	str	r3, [r6, #0]
  402bd4:	bd70      	pop	{r4, r5, r6, pc}
  402bd6:	bf00      	nop
  402bd8:	20400918 	.word	0x20400918

00402bdc <__register_exitproc>:
  402bdc:	e92d 47f0 	stmdb	sp!, {r4, r5, r6, r7, r8, r9, sl, lr}
  402be0:	4c25      	ldr	r4, [pc, #148]	; (402c78 <__register_exitproc+0x9c>)
  402be2:	6825      	ldr	r5, [r4, #0]
  402be4:	f8d5 4148 	ldr.w	r4, [r5, #328]	; 0x148
  402be8:	4606      	mov	r6, r0
  402bea:	4688      	mov	r8, r1
  402bec:	4692      	mov	sl, r2
  402bee:	4699      	mov	r9, r3
  402bf0:	b3c4      	cbz	r4, 402c64 <__register_exitproc+0x88>
  402bf2:	6860      	ldr	r0, [r4, #4]
  402bf4:	281f      	cmp	r0, #31
  402bf6:	dc17      	bgt.n	402c28 <__register_exitproc+0x4c>
  402bf8:	1c43      	adds	r3, r0, #1
  402bfa:	b176      	cbz	r6, 402c1a <__register_exitproc+0x3e>
  402bfc:	eb04 0580 	add.w	r5, r4, r0, lsl #2
  402c00:	2201      	movs	r2, #1
  402c02:	f8c5 a088 	str.w	sl, [r5, #136]	; 0x88
  402c06:	f8d4 1188 	ldr.w	r1, [r4, #392]	; 0x188
  402c0a:	4082      	lsls	r2, r0
  402c0c:	4311      	orrs	r1, r2
  402c0e:	2e02      	cmp	r6, #2
  402c10:	f8c4 1188 	str.w	r1, [r4, #392]	; 0x188
  402c14:	f8c5 9108 	str.w	r9, [r5, #264]	; 0x108
  402c18:	d01e      	beq.n	402c58 <__register_exitproc+0x7c>
  402c1a:	3002      	adds	r0, #2
  402c1c:	6063      	str	r3, [r4, #4]
  402c1e:	f844 8020 	str.w	r8, [r4, r0, lsl #2]
  402c22:	2000      	movs	r0, #0
  402c24:	e8bd 87f0 	ldmia.w	sp!, {r4, r5, r6, r7, r8, r9, sl, pc}
  402c28:	4b14      	ldr	r3, [pc, #80]	; (402c7c <__register_exitproc+0xa0>)
  402c2a:	b303      	cbz	r3, 402c6e <__register_exitproc+0x92>
  402c2c:	f44f 70c8 	mov.w	r0, #400	; 0x190
  402c30:	f7ff fca4 	bl	40257c <malloc>
  402c34:	4604      	mov	r4, r0
  402c36:	b1d0      	cbz	r0, 402c6e <__register_exitproc+0x92>
  402c38:	f8d5 3148 	ldr.w	r3, [r5, #328]	; 0x148
  402c3c:	2700      	movs	r7, #0
  402c3e:	e880 0088 	stmia.w	r0, {r3, r7}
  402c42:	f8c5 4148 	str.w	r4, [r5, #328]	; 0x148
  402c46:	4638      	mov	r0, r7
  402c48:	2301      	movs	r3, #1
  402c4a:	f8c4 7188 	str.w	r7, [r4, #392]	; 0x188
  402c4e:	f8c4 718c 	str.w	r7, [r4, #396]	; 0x18c
  402c52:	2e00      	cmp	r6, #0
  402c54:	d0e1      	beq.n	402c1a <__register_exitproc+0x3e>
  402c56:	e7d1      	b.n	402bfc <__register_exitproc+0x20>
  402c58:	f8d4 118c 	ldr.w	r1, [r4, #396]	; 0x18c
  402c5c:	430a      	orrs	r2, r1
  402c5e:	f8c4 218c 	str.w	r2, [r4, #396]	; 0x18c
  402c62:	e7da      	b.n	402c1a <__register_exitproc+0x3e>
  402c64:	f505 74a6 	add.w	r4, r5, #332	; 0x14c
  402c68:	f8c5 4148 	str.w	r4, [r5, #328]	; 0x148
  402c6c:	e7c1      	b.n	402bf2 <__register_exitproc+0x16>
  402c6e:	f04f 30ff 	mov.w	r0, #4294967295
  402c72:	e8bd 87f0 	ldmia.w	sp!, {r4, r5, r6, r7, r8, r9, sl, pc}
  402c76:	bf00      	nop
  402c78:	00402dac 	.word	0x00402dac
  402c7c:	0040257d 	.word	0x0040257d

00402c80 <_close_r>:
  402c80:	b538      	push	{r3, r4, r5, lr}
  402c82:	4c07      	ldr	r4, [pc, #28]	; (402ca0 <_close_r+0x20>)
  402c84:	2300      	movs	r3, #0
  402c86:	4605      	mov	r5, r0
  402c88:	4608      	mov	r0, r1
  402c8a:	6023      	str	r3, [r4, #0]
  402c8c:	f7fe fc7a 	bl	401584 <_close>
  402c90:	1c43      	adds	r3, r0, #1
  402c92:	d000      	beq.n	402c96 <_close_r+0x16>
  402c94:	bd38      	pop	{r3, r4, r5, pc}
  402c96:	6823      	ldr	r3, [r4, #0]
  402c98:	2b00      	cmp	r3, #0
  402c9a:	d0fb      	beq.n	402c94 <_close_r+0x14>
  402c9c:	602b      	str	r3, [r5, #0]
  402c9e:	bd38      	pop	{r3, r4, r5, pc}
  402ca0:	20400918 	.word	0x20400918

00402ca4 <_fclose_r>:
  402ca4:	2900      	cmp	r1, #0
  402ca6:	d03d      	beq.n	402d24 <_fclose_r+0x80>
  402ca8:	b570      	push	{r4, r5, r6, lr}
  402caa:	4605      	mov	r5, r0
  402cac:	460c      	mov	r4, r1
  402cae:	b108      	cbz	r0, 402cb4 <_fclose_r+0x10>
  402cb0:	6b83      	ldr	r3, [r0, #56]	; 0x38
  402cb2:	b37b      	cbz	r3, 402d14 <_fclose_r+0x70>
  402cb4:	f9b4 300c 	ldrsh.w	r3, [r4, #12]
  402cb8:	b90b      	cbnz	r3, 402cbe <_fclose_r+0x1a>
  402cba:	2000      	movs	r0, #0
  402cbc:	bd70      	pop	{r4, r5, r6, pc}
  402cbe:	4621      	mov	r1, r4
  402cc0:	4628      	mov	r0, r5
  402cc2:	f7ff f975 	bl	401fb0 <__sflush_r>
  402cc6:	6ae3      	ldr	r3, [r4, #44]	; 0x2c
  402cc8:	4606      	mov	r6, r0
  402cca:	b133      	cbz	r3, 402cda <_fclose_r+0x36>
  402ccc:	69e1      	ldr	r1, [r4, #28]
  402cce:	4628      	mov	r0, r5
  402cd0:	4798      	blx	r3
  402cd2:	2800      	cmp	r0, #0
  402cd4:	bfb8      	it	lt
  402cd6:	f04f 36ff 	movlt.w	r6, #4294967295
  402cda:	89a3      	ldrh	r3, [r4, #12]
  402cdc:	061b      	lsls	r3, r3, #24
  402cde:	d41c      	bmi.n	402d1a <_fclose_r+0x76>
  402ce0:	6b21      	ldr	r1, [r4, #48]	; 0x30
  402ce2:	b141      	cbz	r1, 402cf6 <_fclose_r+0x52>
  402ce4:	f104 0340 	add.w	r3, r4, #64	; 0x40
  402ce8:	4299      	cmp	r1, r3
  402cea:	d002      	beq.n	402cf2 <_fclose_r+0x4e>
  402cec:	4628      	mov	r0, r5
  402cee:	f7ff fb03 	bl	4022f8 <_free_r>
  402cf2:	2300      	movs	r3, #0
  402cf4:	6323      	str	r3, [r4, #48]	; 0x30
  402cf6:	6c61      	ldr	r1, [r4, #68]	; 0x44
  402cf8:	b121      	cbz	r1, 402d04 <_fclose_r+0x60>
  402cfa:	4628      	mov	r0, r5
  402cfc:	f7ff fafc 	bl	4022f8 <_free_r>
  402d00:	2300      	movs	r3, #0
  402d02:	6463      	str	r3, [r4, #68]	; 0x44
  402d04:	f7ff fa92 	bl	40222c <__sfp_lock_acquire>
  402d08:	2300      	movs	r3, #0
  402d0a:	81a3      	strh	r3, [r4, #12]
  402d0c:	f7ff fa90 	bl	402230 <__sfp_lock_release>
  402d10:	4630      	mov	r0, r6
  402d12:	bd70      	pop	{r4, r5, r6, pc}
  402d14:	f7ff fa84 	bl	402220 <__sinit>
  402d18:	e7cc      	b.n	402cb4 <_fclose_r+0x10>
  402d1a:	6921      	ldr	r1, [r4, #16]
  402d1c:	4628      	mov	r0, r5
  402d1e:	f7ff faeb 	bl	4022f8 <_free_r>
  402d22:	e7dd      	b.n	402ce0 <_fclose_r+0x3c>
  402d24:	2000      	movs	r0, #0
  402d26:	4770      	bx	lr

00402d28 <_fstat_r>:
  402d28:	b538      	push	{r3, r4, r5, lr}
  402d2a:	460b      	mov	r3, r1
  402d2c:	4c07      	ldr	r4, [pc, #28]	; (402d4c <_fstat_r+0x24>)
  402d2e:	4605      	mov	r5, r0
  402d30:	4611      	mov	r1, r2
  402d32:	4618      	mov	r0, r3
  402d34:	2300      	movs	r3, #0
  402d36:	6023      	str	r3, [r4, #0]
  402d38:	f7fe fc30 	bl	40159c <_fstat>
  402d3c:	1c43      	adds	r3, r0, #1
  402d3e:	d000      	beq.n	402d42 <_fstat_r+0x1a>
  402d40:	bd38      	pop	{r3, r4, r5, pc}
  402d42:	6823      	ldr	r3, [r4, #0]
  402d44:	2b00      	cmp	r3, #0
  402d46:	d0fb      	beq.n	402d40 <_fstat_r+0x18>
  402d48:	602b      	str	r3, [r5, #0]
  402d4a:	bd38      	pop	{r3, r4, r5, pc}
  402d4c:	20400918 	.word	0x20400918

00402d50 <_lseek_r>:
  402d50:	b570      	push	{r4, r5, r6, lr}
  402d52:	460d      	mov	r5, r1
  402d54:	4c08      	ldr	r4, [pc, #32]	; (402d78 <_lseek_r+0x28>)
  402d56:	4611      	mov	r1, r2
  402d58:	4606      	mov	r6, r0
  402d5a:	461a      	mov	r2, r3
  402d5c:	4628      	mov	r0, r5
  402d5e:	2300      	movs	r3, #0
  402d60:	6023      	str	r3, [r4, #0]
  402d62:	f7fe fc2b 	bl	4015bc <_lseek>
  402d66:	1c43      	adds	r3, r0, #1
  402d68:	d000      	beq.n	402d6c <_lseek_r+0x1c>
  402d6a:	bd70      	pop	{r4, r5, r6, pc}
  402d6c:	6823      	ldr	r3, [r4, #0]
  402d6e:	2b00      	cmp	r3, #0
  402d70:	d0fb      	beq.n	402d6a <_lseek_r+0x1a>
  402d72:	6033      	str	r3, [r6, #0]
  402d74:	bd70      	pop	{r4, r5, r6, pc}
  402d76:	bf00      	nop
  402d78:	20400918 	.word	0x20400918

00402d7c <_read_r>:
  402d7c:	b570      	push	{r4, r5, r6, lr}
  402d7e:	460d      	mov	r5, r1
  402d80:	4c08      	ldr	r4, [pc, #32]	; (402da4 <_read_r+0x28>)
  402d82:	4611      	mov	r1, r2
  402d84:	4606      	mov	r6, r0
  402d86:	461a      	mov	r2, r3
  402d88:	4628      	mov	r0, r5
  402d8a:	2300      	movs	r3, #0
  402d8c:	6023      	str	r3, [r4, #0]
  402d8e:	f7fd fbc3 	bl	400518 <_read>
  402d92:	1c43      	adds	r3, r0, #1
  402d94:	d000      	beq.n	402d98 <_read_r+0x1c>
  402d96:	bd70      	pop	{r4, r5, r6, pc}
  402d98:	6823      	ldr	r3, [r4, #0]
  402d9a:	2b00      	cmp	r3, #0
  402d9c:	d0fb      	beq.n	402d96 <_read_r+0x1a>
  402d9e:	6033      	str	r3, [r6, #0]
  402da0:	bd70      	pop	{r4, r5, r6, pc}
  402da2:	bf00      	nop
  402da4:	20400918 	.word	0x20400918
  402da8:	00000043 	.word	0x00000043

00402dac <_global_impure_ptr>:
  402dac:	20400008                                ..@ 

00402db0 <_init>:
  402db0:	b5f8      	push	{r3, r4, r5, r6, r7, lr}
  402db2:	bf00      	nop
  402db4:	bcf8      	pop	{r3, r4, r5, r6, r7}
  402db6:	bc08      	pop	{r3}
  402db8:	469e      	mov	lr, r3
  402dba:	4770      	bx	lr

00402dbc <__init_array_start>:
  402dbc:	00401f91 	.word	0x00401f91

00402dc0 <__frame_dummy_init_array_entry>:
  402dc0:	00400165                                e.@.

00402dc4 <_fini>:
  402dc4:	b5f8      	push	{r3, r4, r5, r6, r7, lr}
  402dc6:	bf00      	nop
  402dc8:	bcf8      	pop	{r3, r4, r5, r6, r7}
  402dca:	bc08      	pop	{r3}
  402dcc:	469e      	mov	lr, r3
  402dce:	4770      	bx	lr

00402dd0 <__fini_array_start>:
  402dd0:	00400141 	.word	0x00400141
